(dp1
S'output'
p2
S"<type 'exceptions.ValueError'> invalid literal for long() with base 10: 'None'"
p3
sS'layer'
p4
S'C:\\Users\\Ferchu\\Desktop\\web2py\\applications\\sistema\\controllers/comercio.py'
p5
sS'code'
p6
S'def index():\n\tif session.usuario != "":\n\t\tcomercios=db().select(db.Comercio.ALL)\n\t\tresponse.view="comercio/home.html"\n\t\treturn dict(comercios=comercios)\n\telse:\n\t\tresponse.view="inicio/LogIn.html"\n\t\treturn dict()\n\ndef AdherirComercio():\n\tresponse.view="comercio/AdherirComercio.html"\n\treturn dict()\n\ndef Comercios():\n\tresponse.view="comercio/Comercios.html"\n\treturn dict()\n\ndef filtrado():\n\tfiltro=request.post_vars\n\tcomercios=db(db.Comercio.Codigo == filtro.Codigo).select()\n\tif len(comercios)!=0:\n\t\tresponse.view="comercio/Comercios.html"\n\t\treturn dict(comercios=comercios)\n\telse:\n\t\tresponse.view="comercio/Buscar.html"\n\t\treturn dict(msj="Codigo no existe")\n\ndef home():\n\tcomercios=db().select(db.Comercio.ALL)\n\tresponse.view="comercio/home.html"\n\treturn dict(comercios=comercios)\n\ndef Buscar():\n\tif session.usuario != "":\n\t\tresponse.view="comercio/Buscar.html"\n\t\treturn dict(msj="Ingrese codigo de comercio")\n\telse:\n\t\tresponse.view="inicio/LogIn.html"\n\t\treturn dict()\n\ndef adherir():\n\tdatos = request.post_vars\n\tdb.Comercio.insert(Codigo=datos.Codigo,Nombre=datos.Nombre,Rubro=datos.Rubro,Provincia=datos.Provincia,Localidad=datos.Localidad,CodigoPostal=datos.CodigoPostal,Direccion=datos.Direccion,Usuario=datos.Usuario,Pass=datos.Pass,)\n\tcomercio = db(db.Comercio.Codigo == datos.Codigo).select()\n\tdb.Contacto.insert(idCom=comercio[0].id,Correo=datos.UsuarioS,Pass=datos.PassS)\n\tdb.Tecnico.insert(idCom=comercio[0].id,Nombre=datos.NombreT,Celular=datos.CelT,Fijo=datos.TelT)\n\tdb.Planes.insert(idCom=comercio[0].id,DniN=datos.NuevoD,DniR=datos.RenovD,DniM=datos.MaxD,SueldoN=datos.NuevoS,SueldoR=datos.RenovS,SueldoM=datos.MaxS,Entrega=datos.Engrega,Paralelos=datos.Paralelos,B40=datos.Beneficio,Mora=datos.Mora,Cliente=datos.Cliente)\n\tresponse.view  = "inicio/index.html"\n\treturn dict()\n\ndef adherirTelefonos():\n\tdatos = request.post_vars\n\tdb.Telefono.insert(idCom=str(datos.Codigo),Prefijo=str(datos.Prefijos),Numero=str(datos.Telefonos),Contacto=str(datos.Nombres))\n\tasd=""\n\treturn(asd)\n\n\ndef mostrar():\n\treturn dict()\n\nresponse._vars=response._caller(adherirTelefonos)\n'
p7
sS'snapshot'
p8
(dp9
S'exception'
p10
(dp11
S'__hash__'
p12
S"<method-wrapper '__hash__' of exceptions.ValueError object>"
p13
sS'__setattr__'
p14
S"<method-wrapper '__setattr__' of exceptions.ValueError object>"
p15
sS'__reduce_ex__'
p16
S'<built-in method __reduce_ex__ of exceptions.ValueError object>'
p17
sS'__getslice__'
p18
S"<method-wrapper '__getslice__' of exceptions.ValueError object>"
p19
sS'__getitem__'
p20
S"<method-wrapper '__getitem__' of exceptions.ValueError object>"
p21
sS'__setstate__'
p22
S'<built-in method __setstate__ of exceptions.ValueError object>'
p23
sS'__reduce__'
p24
S'<built-in method __reduce__ of exceptions.ValueError object>'
p25
sS'__str__'
p26
S"<method-wrapper '__str__' of exceptions.ValueError object>"
p27
sS'__format__'
p28
S'<built-in method __format__ of exceptions.ValueError object>'
p29
sS'__getattribute__'
p30
S"<method-wrapper '__getattribute__' of exceptions.ValueError object>"
p31
sS'__class__'
p32
S"<type 'exceptions.ValueError'>"
p33
sS'__unicode__'
p34
S'<built-in method __unicode__ of exceptions.ValueError object>'
p35
sS'__delattr__'
p36
S"<method-wrapper '__delattr__' of exceptions.ValueError object>"
p37
sS'__subclasshook__'
p38
S'<built-in method __subclasshook__ of type object>'
p39
sS'__repr__'
p40
S"<method-wrapper '__repr__' of exceptions.ValueError object>"
p41
sS'args'
p42
S'("invalid literal for long() with base 10: \'None\'",)'
p43
sS'__dict__'
p44
S'{}'
p45
sS'__sizeof__'
p46
S'<built-in method __sizeof__ of exceptions.ValueError object>'
p47
sS'__doc__'
p48
S"'Inappropriate argument value (of correct type).'"
p49
sS'__init__'
p50
S"<method-wrapper '__init__' of exceptions.ValueError object>"
p51
sS'__new__'
p52
S'<built-in method __new__ of type object>'
p53
ssS'evalue'
p54
S"invalid literal for long() with base 10: 'None'"
p55
sS'request'
p56
cgluon.html
XML_unpickle
p57
(S's\xfb\\\x00\x00<div><table><tr><td style="font-weight:bold;vertical-align:top;">ajax</td><td style="vertical-align:top;">:</td><td><div>False</div></td></tr><tr><td style="font-weight:bold;vertical-align:top;">application</td><td style="vertical-align:top;">:</td><td><div>sistema</div></td></tr><tr><td style="font-weight:bold;vertical-align:top;">args</td><td style="vertical-align:top;">:</td><td><div><table></table></div></td></tr><tr><td style="font-weight:bold;vertical-align:top;">cid</td><td style="vertical-align:top;">:</td><td><div>None</div></td></tr><tr><td style="font-weight:bold;vertical-align:top;">client</td><td style="vertical-align:top;">:</td><td><div>127.0.0.1</div></td></tr><tr><td style="font-weight:bold;vertical-align:top;">controller</td><td style="vertical-align:top;">:</td><td><div>comercio</div></td></tr><tr><td style="font-weight:bold;vertical-align:top;">cookies</td><td style="vertical-align:top;">:</td><td><div><table><tr><td style="font-weight:bold;vertical-align:top;">session_id_admin</td><td style="vertical-align:top;">:</td><td><div>127.0.0.1-72bed89b-7028-484c-b454-4f770af891ba<table><tr><td style="font-weight:bold;vertical-align:top;">comment</td><td style="vertical-align:top;">:</td><td><div></div></td></tr><tr><td style="font-weight:bold;vertical-align:top;">domain</td><td style="vertical-align:top;">:</td><td><div></div></td></tr><tr><td style="font-weight:bold;vertical-align:top;">expires</td><td style="vertical-align:top;">:</td><td><div></div></td></tr><tr><td style="font-weight:bold;vertical-align:top;">httponly</td><td style="vertical-align:top;">:</td><td><div></div></td></tr><tr><td style="font-weight:bold;vertical-align:top;">max-age</td><td style="vertical-align:top;">:</td><td><div></div></td></tr><tr><td style="font-weight:bold;vertical-align:top;">path</td><td style="vertical-align:top;">:</td><td><div></div></td></tr><tr><td style="font-weight:bold;vertical-align:top;">secure</td><td style="vertical-align:top;">:</td><td><div></div></td></tr><tr><td style="font-weight:bold;vertical-align:top;">version</td><td style="vertical-align:top;">:</td><td><div></div></td></tr></table></div></td></tr><tr><td style="font-weight:bold;vertical-align:top;">session_id_sistema</td><td style="vertical-align:top;">:</td><td><div>127.0.0.1-a1a02dd0-0eda-4531-bd74-005859f73064<table><tr><td style="font-weight:bold;vertical-align:top;">comment</td><td style="vertical-align:top;">:</td><td><div></div></td></tr><tr><td style="font-weight:bold;vertical-align:top;">domain</td><td style="vertical-align:top;">:</td><td><div></div></td></tr><tr><td style="font-weight:bold;vertical-align:top;">expires</td><td style="vertical-align:top;">:</td><td><div></div></td></tr><tr><td style="font-weight:bold;vertical-align:top;">httponly</td><td style="vertical-align:top;">:</td><td><div></div></td></tr><tr><td style="font-weight:bold;vertical-align:top;">max-age</td><td style="vertical-align:top;">:</td><td><div></div></td></tr><tr><td style="font-weight:bold;vertical-align:top;">path</td><td style="vertical-align:top;">:</td><td><div></div></td></tr><tr><td style="font-weight:bold;vertical-align:top;">secure</td><td style="vertical-align:top;">:</td><td><div></div></td></tr><tr><td style="font-weight:bold;vertical-align:top;">version</td><td style="vertical-align:top;">:</td><td><div></div></td></tr></table></div></td></tr><tr><td style="font-weight:bold;vertical-align:top;">session_id_welcome</td><td style="vertical-align:top;">:</td><td><div>127.0.0.1-ee76de11-5d4c-43ef-aa51-334aa26424ee<table><tr><td style="font-weight:bold;vertical-align:top;">comment</td><td style="vertical-align:top;">:</td><td><div></div></td></tr><tr><td style="font-weight:bold;vertical-align:top;">domain</td><td style="vertical-align:top;">:</td><td><div></div></td></tr><tr><td style="font-weight:bold;vertical-align:top;">expires</td><td style="vertical-align:top;">:</td><td><div></div></td></tr><tr><td style="font-weight:bold;vertical-align:top;">httponly</td><td style="vertical-align:top;">:</td><td><div></div></td></tr><tr><td style="font-weight:bold;vertical-align:top;">max-age</td><td style="vertical-align:top;">:</td><td><div></div></td></tr><tr><td style="font-weight:bold;vertical-align:top;">path</td><td style="vertical-align:top;">:</td><td><div></div></td></tr><tr><td style="font-weight:bold;vertical-align:top;">secure</td><td style="vertical-align:top;">:</td><td><div></div></td></tr><tr><td style="font-weight:bold;vertical-align:top;">version</td><td style="vertical-align:top;">:</td><td><div></div></td></tr></table></div></td></tr></table></div></td></tr><tr><td style="font-weight:bold;vertical-align:top;">env</td><td style="vertical-align:top;">:</td><td><div><table><tr><td style="font-weight:bold;vertical-align:top;">HTTP_ACCEPT</td><td style="vertical-align:top;">:</td><td><div>text/html,application/xhtml+xml,application/xml;q=0.9,image/webp,*/*;q=0.8</div></td></tr><tr><td style="font-weight:bold;vertical-align:top;">HTTP_ACCEPT_ENCODING</td><td style="vertical-align:top;">:</td><td><div>gzip, deflate, sdch</div></td></tr><tr><td style="font-weight:bold;vertical-align:top;">HTTP_ACCEPT_LANGUAGE</td><td style="vertical-align:top;">:</td><td><div>es-419,es;q=0.8</div></td></tr><tr><td style="font-weight:bold;vertical-align:top;">HTTP_CONNECTION</td><td style="vertical-align:top;">:</td><td><div>keep-alive</div></td></tr><tr><td style="font-weight:bold;vertical-align:top;">HTTP_COOKIE</td><td style="vertical-align:top;">:</td><td><div>__utma=96992031.909548072.1466644694.1467484930.1467587943.7; __utmz=96992031.1466644694.1.1.utmcsr=(direct)|utmccn=(direct)|utmcmd=(none); session_id_welcome=127.0.0.1-ee76de11-5d4c-43ef-aa51-334aa26424ee; session_id_admin=127.0.0.1-72bed89b-7028-484c-b454-4f770af891ba; session_id_sistema=127.0.0.1-a1a02dd0-0eda-4531-bd74-005859f73064</div></td></tr><tr><td style="font-weight:bold;vertical-align:top;">HTTP_HOST</td><td style="vertical-align:top;">:</td><td><div>127.0.0.1:8000</div></td></tr><tr><td style="font-weight:bold;vertical-align:top;">HTTP_UPGRADE_INSECURE_REQUESTS</td><td style="vertical-align:top;">:</td><td><div>1</div></td></tr><tr><td style="font-weight:bold;vertical-align:top;">HTTP_USER_AGENT</td><td style="vertical-align:top;">:</td><td><div>Mozilla/5.0 (Windows NT 6.1; WOW64) AppleWebKit/537.36 (KHTML, like Gecko) Chrome/51.0.2704.103 Safari/537.36</div></td></tr><tr><td style="font-weight:bold;vertical-align:top;">PATH_INFO</td><td style="vertical-align:top;">:</td><td><div>/sistema/comercio/adherirTelefonos</div></td></tr><tr><td style="font-weight:bold;vertical-align:top;">QUERY_STRING</td><td style="vertical-align:top;">:</td><td><div></div></td></tr><tr><td style="font-weight:bold;vertical-align:top;">REMOTE_ADDR</td><td style="vertical-align:top;">:</td><td><div>127.0.0.1</div></td></tr><tr><td style="font-weight:bold;vertical-align:top;">REMOTE_PORT</td><td style="vertical-align:top;">:</td><td><div>1290</div></td></tr><tr><td style="font-weight:bold;vertical-align:top;">REQUEST_METHOD</td><td style="vertical-align:top;">:</td><td><div>GET</div></td></tr><tr><td style="font-weight:bold;vertical-align:top;">SCRIPT_NAME</td><td style="vertical-align:top;">:</td><td><div></div></td></tr><tr><td style="font-weight:bold;vertical-align:top;">SERVER_NAME</td><td style="vertical-align:top;">:</td><td><div>Ferchu-PC</div></td></tr><tr><td style="font-weight:bold;vertical-align:top;">SERVER_PORT</td><td style="vertical-align:top;">:</td><td><div>8000</div></td></tr><tr><td style="font-weight:bold;vertical-align:top;">SERVER_PROTOCOL</td><td style="vertical-align:top;">:</td><td><div>HTTP/1.1</div></td></tr><tr><td style="font-weight:bold;vertical-align:top;">SERVER_SOFTWARE</td><td style="vertical-align:top;">:</td><td><div>Rocket 1.2.6</div></td></tr><tr><td style="font-weight:bold;vertical-align:top;">app_folders</td><td style="vertical-align:top;">:</td><td><div>set([&#x27;C:\\\\Users\\\\Ferchu\\\\Desktop\\\\web2py\\\\applications\\\\sistema\\\\&#x27;, &#x27;C:\\\\Users\\\\Ferchu\\\\Desktop\\\\web2py\\\\applications\\\\admin\\\\&#x27;, &#x27;C:\\\\Users\\\\Ferchu\\\\Desktop\\\\web2py\\\\applications\\\\welcome\\\\&#x27;, &#x27;C:\\\\Users\\\\Ferchu\\\\Desktop\\\\web2py\\\\applications\\\\Sistema\\\\&#x27;])</div></td></tr><tr><td style="font-weight:bold;vertical-align:top;">applications_parent</td><td style="vertical-align:top;">:</td><td><div>C:\\Users\\Ferchu\\Desktop\\web2py</div></td></tr><tr><td style="font-weight:bold;vertical-align:top;">cmd_args</td><td style="vertical-align:top;">:</td><td><div><table></table></div></td></tr><tr><td style="font-weight:bold;vertical-align:top;">cmd_options</td><td style="vertical-align:top;">:</td><td><div>&lt;Values at 0x3066058: {&#x27;verbose&#x27;: False, &#x27;ip&#x27;: &#x27;127.0.0.1&#x27;, &#x27;debuglevel&#x27;: 30, &#x27;with_scheduler&#x27;: False, &#x27;shutdown_timeout&#x27;: 5, &#x27;taskbar&#x27;: False, &#x27;with_coverage&#x27;: False, &#x27;pid_filename&#x27;: &#x27;httpserver.pid&#x27;, &#x27;maxthreads&#x27;: None, &#x27;softcron&#x27;: False, &#x27;server_name&#x27;: &#x27;Ferchu-PC&#x27;, &#x27;bpython&#x27;: False, &#x27;nogui&#x27;: False, &#x27;port&#x27;: 8000, &#x27;print_errors&#x27;: False, &#x27;extcron&#x27;: False, &#x27;runcron&#x27;: False, &#x27;run_system_tests&#x27;: False, &#x27;test&#x27;: None, &#x27;folder&#x27;: &#x27;C:\\\\Users\\\\Ferchu\\\\Desktop\\\\web2py&#x27;, &#x27;config&#x27;: &#x27;&#x27;, &#x27;minthreads&#x27;: None, &#x27;shell&#x27;: None, &#x27;run&#x27;: &#x27;&#x27;, &#x27;log_filename&#x27;: &#x27;httpserver.log&#x27;, &#x27;profiler_dir&#x27;: None, &#x27;args&#x27;: [&#x27;&#x27;], &#x27;socket_timeout&#x27;: 5, &#x27;ssl_ca_certificate&#x27;: None, &#x27;scheduler&#x27;: None, &#x27;interfaces&#x27;: None, &#x27;ssl_private_key&#x27;: &#x27;&#x27;, &#x27;gae&#x27;: None, &#x27;password&#x27;: &#x27;******&#x27;, &#x27;request_queue_size&#x27;: 5, &#x27;ssl_certificate&#x27;: &#x27;&#x27;, &#x27;cronjob&#x27;: False, &#x27;numthreads&#x27;: None, &#x27;quiet&#x27;: False, &#x27;import_models&#x27;: False, &#x27;timeout&#x27;: 10, &#x27;plain&#x27;: False, &#x27;nobanner&#x27;: False}&gt;</div></td></tr><tr><td style="font-weight:bold;vertical-align:top;">db_sessions</td><td style="vertical-align:top;">:</td><td><div>set([])</div></td></tr><tr><td style="font-weight:bold;vertical-align:top;">debugging</td><td style="vertical-align:top;">:</td><td><div>False</div></td></tr><tr><td style="font-weight:bold;vertical-align:top;">gluon_parent</td><td style="vertical-align:top;">:</td><td><div>C:\\Users\\Ferchu\\Desktop\\web2py</div></td></tr><tr><td style="font-weight:bold;vertical-align:top;">http_accept</td><td style="vertical-align:top;">:</td><td><div>text/html,application/xhtml+xml,application/xml;q=0.9,image/webp,*/*;q=0.8</div></td></tr><tr><td style="font-weight:bold;vertical-align:top;">http_accept_encoding</td><td style="vertical-align:top;">:</td><td><div>gzip, deflate, sdch</div></td></tr><tr><td style="font-weight:bold;vertical-align:top;">http_accept_language</td><td style="vertical-align:top;">:</td><td><div>es-419,es;q=0.8</div></td></tr><tr><td style="font-weight:bold;vertical-align:top;">http_connection</td><td style="vertical-align:top;">:</td><td><div>keep-alive</div></td></tr><tr><td style="font-weight:bold;vertical-align:top;">http_cookie</td><td style="vertical-align:top;">:</td><td><div>__utma=96992031.909548072.1466644694.1467484930.1467587943.7; __utmz=96992031.1466644694.1.1.utmcsr=(direct)|utmccn=(direct)|utmcmd=(none); session_id_welcome=127.0.0.1-ee76de11-5d4c-43ef-aa51-334aa26424ee; session_id_admin=127.0.0.1-72bed89b-7028-484c-b454-4f770af891ba; session_id_sistema=127.0.0.1-a1a02dd0-0eda-4531-bd74-005859f73064</div></td></tr><tr><td style="font-weight:bold;vertical-align:top;">http_host</td><td style="vertical-align:top;">:</td><td><div>127.0.0.1:8000</div></td></tr><tr><td style="font-weight:bold;vertical-align:top;">http_upgrade_insecure_requests</td><td style="vertical-align:top;">:</td><td><div>1</div></td></tr><tr><td style="font-weight:bold;vertical-align:top;">http_user_agent</td><td style="vertical-align:top;">:</td><td><div>Mozilla/5.0 (Windows NT 6.1; WOW64) AppleWebKit/537.36 (KHTML, like Gecko) Chrome/51.0.2704.103 Safari/537.36</div></td></tr><tr><td style="font-weight:bold;vertical-align:top;">is_jython</td><td style="vertical-align:top;">:</td><td><div>False</div></td></tr><tr><td style="font-weight:bold;vertical-align:top;">is_pypy</td><td style="vertical-align:top;">:</td><td><div>False</div></td></tr><tr><td style="font-weight:bold;vertical-align:top;">is_source</td><td style="vertical-align:top;">:</td><td><div>False</div></td></tr><tr><td style="font-weight:bold;vertical-align:top;">local_hosts</td><td style="vertical-align:top;">:</td><td><div><table><tr><td><div>Ferchu-PC</div></td></tr><tr><td><div>Ferchu-PC.lan</div></td></tr><tr><td><div>::ffff:127.0.0.1</div></td></tr><tr><td><div>::1</div></td></tr><tr><td><div>fe80::35e9:9bf9:7bc2:2e27%18</div></td></tr><tr><td><div>192.168.0.12</div></td></tr><tr><td><div>127.0.0.1</div></td></tr></table></div></td></tr><tr><td style="font-weight:bold;vertical-align:top;">path_info</td><td style="vertical-align:top;">:</td><td><div>/sistema/comercio/adherirTelefonos</div></td></tr><tr><td style="font-weight:bold;vertical-align:top;">query_string</td><td style="vertical-align:top;">:</td><td><div></div></td></tr><tr><td style="font-weight:bold;vertical-align:top;">remote_addr</td><td style="vertical-align:top;">:</td><td><div>127.0.0.1</div></td></tr><tr><td style="font-weight:bold;vertical-align:top;">remote_port</td><td style="vertical-align:top;">:</td><td><div>1290</div></td></tr><tr><td style="font-weight:bold;vertical-align:top;">request_method</td><td style="vertical-align:top;">:</td><td><div>GET</div></td></tr><tr><td style="font-weight:bold;vertical-align:top;">request_uri</td><td style="vertical-align:top;">:</td><td><div>/sistema/comercio/adherirTelefonos</div></td></tr><tr><td style="font-weight:bold;vertical-align:top;">script_name</td><td style="vertical-align:top;">:</td><td><div></div></td></tr><tr><td style="font-weight:bold;vertical-align:top;">server_name</td><td style="vertical-align:top;">:</td><td><div>Ferchu-PC</div></td></tr><tr><td style="font-weight:bold;vertical-align:top;">server_port</td><td style="vertical-align:top;">:</td><td><div>8000</div></td></tr><tr><td style="font-weight:bold;vertical-align:top;">server_protocol</td><td style="vertical-align:top;">:</td><td><div>HTTP/1.1</div></td></tr><tr><td style="font-weight:bold;vertical-align:top;">server_software</td><td style="vertical-align:top;">:</td><td><div>Rocket 1.2.6</div></td></tr><tr><td style="font-weight:bold;vertical-align:top;">web2py_path</td><td style="vertical-align:top;">:</td><td><div>C:\\Users\\Ferchu\\Desktop\\web2py</div></td></tr><tr><td style="font-weight:bold;vertical-align:top;">web2py_version</td><td style="vertical-align:top;">:</td><td><div>2.14.6-stable+timestamp.2016.05.10.00.21.47</div></td></tr><tr><td style="font-weight:bold;vertical-align:top;">wsgi.errors</td><td style="vertical-align:top;">:</td><td><div>&lt;open file &#x27;&lt;stderr&gt;&#x27;, mode &#x27;w&#x27; at 0x0045D0D0&gt;</div></td></tr><tr><td style="font-weight:bold;vertical-align:top;">wsgi.file_wrapper</td><td style="vertical-align:top;">:</td><td><div>&lt;class wsgiref.util.FileWrapper at 0x030DE2D0&gt;</div></td></tr><tr><td style="font-weight:bold;vertical-align:top;">wsgi.input</td><td style="vertical-align:top;">:</td><td><div>&lt;socket._fileobject object at 0x04601EF0&gt;</div></td></tr><tr><td style="font-weight:bold;vertical-align:top;">wsgi.multiprocess</td><td style="vertical-align:top;">:</td><td><div>False</div></td></tr><tr><td style="font-weight:bold;vertical-align:top;">wsgi.multithread</td><td style="vertical-align:top;">:</td><td><div>True</div></td></tr><tr><td style="font-weight:bold;vertical-align:top;">wsgi.run_once</td><td style="vertical-align:top;">:</td><td><div>False</div></td></tr><tr><td style="font-weight:bold;vertical-align:top;">wsgi.url_scheme</td><td style="vertical-align:top;">:</td><td><div>http</div></td></tr><tr><td style="font-weight:bold;vertical-align:top;">wsgi.version</td><td style="vertical-align:top;">:</td><td><div><table><tr><td><div>1</div></td></tr><tr><td><div>0</div></td></tr></table></div></td></tr><tr><td style="font-weight:bold;vertical-align:top;">wsgi_errors</td><td style="vertical-align:top;">:</td><td><div>&lt;open file &#x27;&lt;stderr&gt;&#x27;, mode &#x27;w&#x27; at 0x0045D0D0&gt;</div></td></tr><tr><td style="font-weight:bold;vertical-align:top;">wsgi_file_wrapper</td><td style="vertical-align:top;">:</td><td><div>&lt;class wsgiref.util.FileWrapper at 0x030DE2D0&gt;</div></td></tr><tr><td style="font-weight:bold;vertical-align:top;">wsgi_input</td><td style="vertical-align:top;">:</td><td><div>&lt;socket._fileobject object at 0x04601EF0&gt;</div></td></tr><tr><td style="font-weight:bold;vertical-align:top;">wsgi_multiprocess</td><td style="vertical-align:top;">:</td><td><div>False</div></td></tr><tr><td style="font-weight:bold;vertical-align:top;">wsgi_multithread</td><td style="vertical-align:top;">:</td><td><div>True</div></td></tr><tr><td style="font-weight:bold;vertical-align:top;">wsgi_run_once</td><td style="vertical-align:top;">:</td><td><div>False</div></td></tr><tr><td style="font-weight:bold;vertical-align:top;">wsgi_url_scheme</td><td style="vertical-align:top;">:</td><td><div>http</div></td></tr><tr><td style="font-weight:bold;vertical-align:top;">wsgi_version</td><td style="vertical-align:top;">:</td><td><div><table><tr><td><div>1</div></td></tr><tr><td><div>0</div></td></tr></table></div></td></tr></table></div></td></tr><tr><td style="font-weight:bold;vertical-align:top;">extension</td><td style="vertical-align:top;">:</td><td><div>html</div></td></tr><tr><td style="font-weight:bold;vertical-align:top;">folder</td><td style="vertical-align:top;">:</td><td><div>C:\\Users\\Ferchu\\Desktop\\web2py\\applications\\sistema\\</div></td></tr><tr><td style="font-weight:bold;vertical-align:top;">function</td><td style="vertical-align:top;">:</td><td><div>adherirTelefonos</div></td></tr><tr><td style="font-weight:bold;vertical-align:top;">global_settings</td><td style="vertical-align:top;">:</td><td><div><table><tr><td style="font-weight:bold;vertical-align:top;">app_folders</td><td style="vertical-align:top;">:</td><td><div>set([&#x27;C:\\\\Users\\\\Ferchu\\\\Desktop\\\\web2py\\\\applications\\\\sistema\\\\&#x27;, &#x27;C:\\\\Users\\\\Ferchu\\\\Desktop\\\\web2py\\\\applications\\\\admin\\\\&#x27;, &#x27;C:\\\\Users\\\\Ferchu\\\\Desktop\\\\web2py\\\\applications\\\\welcome\\\\&#x27;, &#x27;C:\\\\Users\\\\Ferchu\\\\Desktop\\\\web2py\\\\applications\\\\Sistema\\\\&#x27;])</div></td></tr><tr><td style="font-weight:bold;vertical-align:top;">applications_parent</td><td style="vertical-align:top;">:</td><td><div>C:\\Users\\Ferchu\\Desktop\\web2py</div></td></tr><tr><td style="font-weight:bold;vertical-align:top;">cmd_args</td><td style="vertical-align:top;">:</td><td><div><table></table></div></td></tr><tr><td style="font-weight:bold;vertical-align:top;">cmd_options</td><td style="vertical-align:top;">:</td><td><div>&lt;Values at 0x3066058: {&#x27;verbose&#x27;: False, &#x27;ip&#x27;: &#x27;127.0.0.1&#x27;, &#x27;debuglevel&#x27;: 30, &#x27;with_scheduler&#x27;: False, &#x27;shutdown_timeout&#x27;: 5, &#x27;taskbar&#x27;: False, &#x27;with_coverage&#x27;: False, &#x27;pid_filename&#x27;: &#x27;httpserver.pid&#x27;, &#x27;maxthreads&#x27;: None, &#x27;softcron&#x27;: False, &#x27;server_name&#x27;: &#x27;Ferchu-PC&#x27;, &#x27;bpython&#x27;: False, &#x27;nogui&#x27;: False, &#x27;port&#x27;: 8000, &#x27;print_errors&#x27;: False, &#x27;extcron&#x27;: False, &#x27;runcron&#x27;: False, &#x27;run_system_tests&#x27;: False, &#x27;test&#x27;: None, &#x27;folder&#x27;: &#x27;C:\\\\Users\\\\Ferchu\\\\Desktop\\\\web2py&#x27;, &#x27;config&#x27;: &#x27;&#x27;, &#x27;minthreads&#x27;: None, &#x27;shell&#x27;: None, &#x27;run&#x27;: &#x27;&#x27;, &#x27;log_filename&#x27;: &#x27;httpserver.log&#x27;, &#x27;profiler_dir&#x27;: None, &#x27;args&#x27;: [&#x27;&#x27;], &#x27;socket_timeout&#x27;: 5, &#x27;ssl_ca_certificate&#x27;: None, &#x27;scheduler&#x27;: None, &#x27;interfaces&#x27;: None, &#x27;ssl_private_key&#x27;: &#x27;&#x27;, &#x27;gae&#x27;: None, &#x27;password&#x27;: &#x27;******&#x27;, &#x27;request_queue_size&#x27;: 5, &#x27;ssl_certificate&#x27;: &#x27;&#x27;, &#x27;cronjob&#x27;: False, &#x27;numthreads&#x27;: None, &#x27;quiet&#x27;: False, &#x27;import_models&#x27;: False, &#x27;timeout&#x27;: 10, &#x27;plain&#x27;: False, &#x27;nobanner&#x27;: False}&gt;</div></td></tr><tr><td style="font-weight:bold;vertical-align:top;">db_sessions</td><td style="vertical-align:top;">:</td><td><div>set([])</div></td></tr><tr><td style="font-weight:bold;vertical-align:top;">debugging</td><td style="vertical-align:top;">:</td><td><div>False</div></td></tr><tr><td style="font-weight:bold;vertical-align:top;">gluon_parent</td><td style="vertical-align:top;">:</td><td><div>C:\\Users\\Ferchu\\Desktop\\web2py</div></td></tr><tr><td style="font-weight:bold;vertical-align:top;">is_jython</td><td style="vertical-align:top;">:</td><td><div>False</div></td></tr><tr><td style="font-weight:bold;vertical-align:top;">is_pypy</td><td style="vertical-align:top;">:</td><td><div>False</div></td></tr><tr><td style="font-weight:bold;vertical-align:top;">is_source</td><td style="vertical-align:top;">:</td><td><div>False</div></td></tr><tr><td style="font-weight:bold;vertical-align:top;">local_hosts</td><td style="vertical-align:top;">:</td><td><div><table><tr><td><div>Ferchu-PC</div></td></tr><tr><td><div>Ferchu-PC.lan</div></td></tr><tr><td><div>::ffff:127.0.0.1</div></td></tr><tr><td><div>::1</div></td></tr><tr><td><div>fe80::35e9:9bf9:7bc2:2e27%18</div></td></tr><tr><td><div>192.168.0.12</div></td></tr><tr><td><div>127.0.0.1</div></td></tr></table></div></td></tr><tr><td style="font-weight:bold;vertical-align:top;">web2py_version</td><td style="vertical-align:top;">:</td><td><div>2.14.6-stable+timestamp.2016.05.10.00.21.47</div></td></tr></table></div></td></tr><tr><td style="font-weight:bold;vertical-align:top;">is_https</td><td style="vertical-align:top;">:</td><td><div>False</div></td></tr><tr><td style="font-weight:bold;vertical-align:top;">is_local</td><td style="vertical-align:top;">:</td><td><div>True</div></td></tr><tr><td style="font-weight:bold;vertical-align:top;">is_restful</td><td style="vertical-align:top;">:</td><td><div>False</div></td></tr><tr><td style="font-weight:bold;vertical-align:top;">is_scheduler</td><td style="vertical-align:top;">:</td><td><div>False</div></td></tr><tr><td style="font-weight:bold;vertical-align:top;">is_shell</td><td style="vertical-align:top;">:</td><td><div>False</div></td></tr><tr><td style="font-weight:bold;vertical-align:top;">now</td><td style="vertical-align:top;">:</td><td><div>datetime.datetime(2016, 8, 7, 17, 42, 8, 841000)</div></td></tr><tr><td style="font-weight:bold;vertical-align:top;">raw_args</td><td style="vertical-align:top;">:</td><td><div></div></td></tr><tr><td style="font-weight:bold;vertical-align:top;">raw_extension</td><td style="vertical-align:top;">:</td><td><div>None</div></td></tr><tr><td style="font-weight:bold;vertical-align:top;">url</td><td style="vertical-align:top;">:</td><td><div>/sistema/comercio/adherirTelefonos</div></td></tr><tr><td style="font-weight:bold;vertical-align:top;">utcnow</td><td style="vertical-align:top;">:</td><td><div>datetime.datetime(2016, 8, 7, 20, 42, 8, 841000)</div></td></tr><tr><td style="font-weight:bold;vertical-align:top;">wsgi</td><td style="vertical-align:top;">:</td><td><div>&lt;gluon.main.LazyWSGI object at 0x08709D50&gt;</div></td></tr></table></div>'
tRp58
sS'frames'
p59
(lp60
(dp61
S'file'
p62
S'C:\\Users\\Ferchu\\Desktop\\web2py\\gluon\\restricted.py'
p63
sS'dump'
p64
(dp65
S'environment'
p66
S"{'A': <class 'gluon.html.A'>, 'ANY_OF': <class 'gluon.validators.ANY_OF'>, 'ASSIGNJS': <function ASSIGNJS>, 'AdherirComercio': <function AdherirComercio>, 'AppConfig': <function AppConfig>, 'Auth': <class 'gluon.tools.Auth'>, 'B': <class 'gluon.html.B'>, 'BEAUTIFY': <class 'gluon.html.BEAUTIFY'>, 'BODY': <class 'gluon.html.BODY'>, 'BR': <class 'gluon.html.BR'>, ...}"
p67
sS'ccode'
p68
S'<code object <module> at 04074E30, file "C:\\User...cations\\sistema\\controllers/comercio.py", line 1>'
p69
ssS'lnum'
p70
I227
sS'lines'
p71
(dp72
I224
S'            ccode = code'
p73
sI225
S'        else:'
p74
sI226
S'            ccode = compile2(code, layer)'
p75
sI227
S'        exec ccode in environment'
p76
sI228
S'    except HTTP:'
p77
sI229
S'        raise'
p78
sI230
S'    except RestrictedError:'
p79
sI231
S'        # do not encapsulate (obfuscate) the original RestrictedError'
p80
sI222
S'    try:'
p81
sI223
S'        if isinstance(code, types.CodeType):'
p82
ssS'call'
p83
S'(code=\'def index():\\n\\tif session.usuario != "":\\n\\t\\tcomerc...esponse._vars=response._caller(adherirTelefonos)\\n\', environment={\'A\': <class \'gluon.html.A\'>, \'ANY_OF\': <class \'gluon.validators.ANY_OF\'>, \'ASSIGNJS\': <function ASSIGNJS>, \'AdherirComercio\': <function AdherirComercio>, \'AppConfig\': <function AppConfig>, \'Auth\': <class \'gluon.tools.Auth\'>, \'B\': <class \'gluon.html.B\'>, \'BEAUTIFY\': <class \'gluon.html.BEAUTIFY\'>, \'BODY\': <class \'gluon.html.BODY\'>, \'BR\': <class \'gluon.html.BR\'>, ...}, layer=r\'C:\\Users\\Ferchu\\Desktop\\web2py\\applications\\sistema\\controllers/comercio.py\')'
p84
sS'func'
p85
S'restricted'
p86
sa(dp87
g62
S'C:\\Users\\Ferchu\\Desktop\\web2py\\applications\\sistema\\controllers\\comercio.py'
p88
sg64
(dp89
sg70
I61
sg71
(dp90
I50
S''
sI51
S'def adherirTelefonos():'
p91
sI52
S'\tdatos = request.post_vars'
p92
sI53
S'\tdb.Telefono.insert(idCom=str(datos.Codigo),Prefijo=str(datos.Prefijos),Numero=str(datos.Telefonos),Contacto=str(datos.Nombres))'
p93
sI54
S'\tasd=""'
p94
sI55
S'\treturn(asd)'
p95
sI56
S''
sI57
S''
sI58
S'def mostrar():'
p96
sI59
S'\treturn dict()'
p97
ssg83
S'()'
p98
sg85
S'<module>'
p99
sa(dp100
g62
S'C:\\Users\\Ferchu\\Desktop\\web2py\\gluon\\globals.py'
p101
sg64
(dp102
S'self'
p103
S'undefined'
p104
sS'f'
S'<function adherirTelefonos>'
p105
ssg70
I417
sg71
(dp106
I416
S'        self._vars = None'
p107
sI417
S'        self._caller = lambda f: f()'
p108
sI418
S'        self._view_environment = None'
p109
sI419
S'        self._custom_commit = None'
p110
sI420
S'        self._custom_rollback = None'
p111
sI421
S"        self.generic_patterns = ['*']"
p112
sI412
S"        self.flash = ''            # used by the default view layout"
p113
sI413
S'        self.meta = Storage()      # used by web2py_ajax.html'
p114
sI414
S'        self.menu = []             # used by the default view layout'
p115
sI415
S'        self.files = []            # used by web2py_ajax.html'
p116
ssg83
S'(f=<function adherirTelefonos>)'
p117
sg85
S'<lambda>'
p118
sa(dp119
g62
S'C:\\Users\\Ferchu\\Desktop\\web2py\\applications\\sistema\\controllers\\comercio.py'
p120
sg64
(dp121
S'global request'
p122
S"<Storage {'_vars': <Storage {}>, 'function': 'ad...rchu\\\\Desktop\\\\web2py\\\\applications\\\\sistema\\\\'}>"
p123
sS'request.vars'
p124
S'<Storage {}>'
p125
sS'request.vars.Telefonos'
p126
S'None'
p127
sS'tel'
p128
g104
ssg70
I53
sg71
(dp129
I48
S'\tresponse.view  = "inicio/index.html"'
p130
sI49
S'\treturn dict()'
p131
sI50
S''
sI51
S'def adherirTelefonos():'
p132
sI52
S'\tdatos = request.post_vars'
p133
sI53
S'\tdb.Telefono.insert(idCom=str(datos.Codigo),Prefijo=str(datos.Prefijos),Numero=str(datos.Telefonos),Contacto=str(datos.Nombres))'
p134
sI54
S'\tasd=""'
p135
sI55
S'\treturn(asd)'
p136
sI56
S''
sI57
S''
ssg83
S'()'
p137
sg85
S'adherirTelefonos'
p138
sa(dp139
g62
S'C:\\Users\\Ferchu\\Desktop\\web2py\\gluon\\packages\\dal\\pydal\\objects.py'
p140
sg64
(dp141
S'self._listify'
p142
S'<bound method Table._listify of <Table Telefono (id, idCom, Prefijo, Numero, Contacto)>>'
p143
sS'fields'
p144
S"{'Contacto': 'None', 'Numero': 'None', 'Prefijo': 'None', 'idCom': 'None'}"
p145
sS'self'
p146
S'<Table Telefono (id, idCom, Prefijo, Numero, Contacto)>'
p147
sS'ret'
p148
g104
sS'self._db._adapter'
p149
S'<pydal.adapters.sqlite.SQLiteAdapter object>'
p150
sS'self._db._adapter.insert'
p151
S'<bound method SQLiteAdapter.insert of <pydal.adapters.sqlite.SQLiteAdapter object>>'
p152
sS'self._db'
p153
S'<DAL uri="sqlite://storage.sqlite">'
p154
ssg70
I726
sg71
(dp155
I721
S'    def insert(self, **fields):'
p156
sI722
S'        fields = self._defaults(fields)'
p157
sI723
S'        self._attempt_upload(fields)'
p158
sI724
S'        if any(f(fields) for f in self._before_insert):'
p159
sI725
S'            return 0'
p160
sI726
S'        ret = self._db._adapter.insert(self, self._listify(fields))'
p161
sI727
S'        if ret and self._after_insert:'
p162
sI728
S'            fields = Row(fields)'
p163
sI729
S'            [f(fields, ret) for f in self._after_insert]'
p164
sI730
S'        return ret'
p165
ssg83
S"(self=<Table Telefono (id, idCom, Prefijo, Numero, Contacto)>, **fields={'Contacto': 'None', 'Numero': 'None', 'Prefijo': 'None', 'idCom': 'None'})"
p166
sg85
S'insert'
p167
sa(dp168
g62
S'C:\\Users\\Ferchu\\Desktop\\web2py\\gluon\\packages\\dal\\pydal\\adapters\\base.py'
p169
sg64
(dp170
S'self._insert'
p171
S'<bound method SQLiteAdapter._insert of <pydal.adapters.sqlite.SQLiteAdapter object>>'
p172
sS'query'
p173
g104
sS'self'
p174
S'<pydal.adapters.sqlite.SQLiteAdapter object>'
p175
sS'fields'
p176
S"[(<pydal.objects.Field object>, 'None'), (<pydal.objects.Field object>, 'None'), (<pydal.objects.Field object>, 'None'), (<pydal.objects.Field object>, 'None')]"
p177
sS'table'
p178
S'<Table Telefono (id, idCom, Prefijo, Numero, Contacto)>'
p179
ssg70
I739
sg71
(dp180
I736
S"        return 'INSERT INTO %s DEFAULT VALUES;' % (table.sqlsafe)"
p181
sI737
S''
sI738
S'    def insert(self, table, fields):'
p182
sI739
S'        query = self._insert(table,fields)'
p183
sI740
S'        try:'
p184
sI741
S'            self.execute(query)'
p185
sI742
S'        except Exception:'
p186
sI743
S'            e = sys.exc_info()[1]'
p187
sI734
S''
sI735
S'    def _insert_empty(self, table):'
p188
ssg83
S"(self=<pydal.adapters.sqlite.SQLiteAdapter object>, table=<Table Telefono (id, idCom, Prefijo, Numero, Contacto)>, fields=[(<pydal.objects.Field object>, 'None'), (<pydal.objects.Field object>, 'None'), (<pydal.objects.Field object>, 'None'), (<pydal.objects.Field object>, 'None')])"
p189
sg85
g167
sa(dp190
g62
S'C:\\Users\\Ferchu\\Desktop\\web2py\\gluon\\packages\\dal\\pydal\\adapters\\base.py'
p191
sg64
(dp192
S'f'
g104
sS'fields'
p193
S"[(<pydal.objects.Field object>, 'None'), (<pydal.objects.Field object>, 'None'), (<pydal.objects.Field object>, 'None'), (<pydal.objects.Field object>, 'None')]"
p194
sS'self'
p195
S'<pydal.adapters.sqlite.SQLiteAdapter object>'
p196
sS'values'
p197
g104
sS'v'
g104
sS'self.expand'
p198
S'<bound method SQLiteAdapter.expand of <pydal.adapters.sqlite.SQLiteAdapter object>>'
p199
ssg70
I730
sg71
(dp200
I725
S''
sI726
S'    def _insert(self, table, fields):'
p201
sI727
S'        table_rname = table.sqlsafe'
p202
sI728
S'        if fields:'
p203
sI729
S"            keys = ','.join(f.sqlsafe_name for f, v in fields)"
p204
sI730
S"            values = ','.join(self.expand(v, f.type) for f, v in fields)"
p205
sI731
S"            return 'INSERT INTO %s(%s) VALUES (%s);' % (table_rname, keys, values)"
p206
sI732
S'        else:'
p207
sI733
S'            return self._insert_empty(table)'
p208
sI734
S''
ssg83
S"(self=<pydal.adapters.sqlite.SQLiteAdapter object>, table=<Table Telefono (id, idCom, Prefijo, Numero, Contacto)>, fields=[(<pydal.objects.Field object>, 'None'), (<pydal.objects.Field object>, 'None'), (<pydal.objects.Field object>, 'None'), (<pydal.objects.Field object>, 'None')])"
p209
sg85
S'_insert'
p210
sa(dp211
g62
S'C:\\Users\\Ferchu\\Desktop\\web2py\\gluon\\packages\\dal\\pydal\\adapters\\base.py'
p212
sg64
(dp213
S'f'
S'<pydal.objects.Field object>'
p214
sS'fields'
p215
g104
sS'self'
p216
S'<pydal.adapters.sqlite.SQLiteAdapter object>'
p217
sS'f.type'
p218
S"'reference Comercio'"
p219
sS'values'
p220
g104
sS'v'
S"'None'"
p221
sS'self.expand'
p222
S'<bound method SQLiteAdapter.expand of <pydal.adapters.sqlite.SQLiteAdapter object>>'
p223
ssg70
I730
sg71
(dp224
I725
S''
sI726
S'    def _insert(self, table, fields):'
p225
sI727
S'        table_rname = table.sqlsafe'
p226
sI728
S'        if fields:'
p227
sI729
S"            keys = ','.join(f.sqlsafe_name for f, v in fields)"
p228
sI730
S"            values = ','.join(self.expand(v, f.type) for f, v in fields)"
p229
sI731
S"            return 'INSERT INTO %s(%s) VALUES (%s);' % (table_rname, keys, values)"
p230
sI732
S'        else:'
p231
sI733
S'            return self._insert_empty(table)'
p232
sI734
S''
ssg83
S"((f=<pydal.objects.Field object>, v='None'))"
p233
sg85
S'<genexpr>'
p234
sa(dp235
g62
S'C:\\Users\\Ferchu\\Desktop\\web2py\\gluon\\packages\\dal\\pydal\\adapters\\base.py'
p236
sg64
(dp237
S'self.represent'
p238
S'<bound method SQLiteAdapter.represent of <pydal.adapters.sqlite.SQLiteAdapter object>>'
p239
sS'rv'
p240
g104
sS'expression'
p241
S"'None'"
p242
sS'self'
p243
S'<pydal.adapters.sqlite.SQLiteAdapter object>'
p244
sS'field_type'
p245
S"'reference Comercio'"
p246
ssg70
I962
sg71
(dp247
I960
S'                rv = op()'
p248
sI961
S'        elif field_type:'
p249
sI962
S'            rv = self.represent(expression, field_type)'
p250
sI963
S'        elif isinstance(expression, (list, tuple)):'
p251
sI964
S"            rv = ','.join(self.represent(item, field_type)"
p252
sI965
S'                          for item in expression)'
p253
sI966
S'        elif isinstance(expression, bool):'
p254
sI957
S'                    op = op[:-1]'
p255
sI958
S"                rv = '(%s)' % op"
p256
sI959
S'            else:'
p257
ssg83
S"(self=<pydal.adapters.sqlite.SQLiteAdapter object>, expression='None', field_type='reference Comercio', colnames=False)"
p258
sg85
S'expand'
p259
sa(dp260
g62
S'C:\\Users\\Ferchu\\Desktop\\web2py\\gluon\\packages\\dal\\pydal\\adapters\\base.py'
p261
sg64
(dp262
S'builtinstr'
p263
S"<type 'str'>"
p264
sS'global long'
p265
S"<type 'long'>"
p266
sS'obj'
p267
S"'None'"
p268
ssg70
I1442
sg71
(dp269
I1440
S'            referenced = fieldtype[9:].strip()'
p270
sI1441
S'            if referenced in self.db.tables:'
p271
sI1442
S'                return str(long(obj))'
p272
sI1443
S"            p = referenced.partition('.')"
p273
sI1444
S"            if p[2] != '':"
p274
sI1445
S'                try:'
p275
sI1446
S'                    ftype = self.db[p[0]][p[2]].type'
p276
sI1437
S'            return str(obj)'
p277
sI1438
S"        elif field_is_type('reference'): # reference"
p278
sI1439
S'            # check for tablename first'
p279
ssg83
S"(self=<pydal.adapters.sqlite.SQLiteAdapter object>, obj='None', fieldtype='reference Comercio')"
p280
sg85
S'represent'
p281
sasS'pyver'
p282
S'Python 2.7.9: C:\\Users\\Ferchu\\Desktop\\web2py\\web2py.exe (prefix: C:\\Python27)'
p283
sS'session'
p284
g57
(S'sF\x02\x00\x00<div><table><tr><td style="font-weight:bold;vertical-align:top;">last_orderby</td><td style="vertical-align:top;">:</td><td><div>None</div></td></tr><tr><td style="font-weight:bold;vertical-align:top;">last_query</td><td style="vertical-align:top;">:</td><td><div>db.Telefono.id&gt;0</div></td></tr><tr><td style="font-weight:bold;vertical-align:top;">tipo</td><td style="vertical-align:top;">:</td><td><div>Administrador</div></td></tr><tr><td style="font-weight:bold;vertical-align:top;">usuario</td><td style="vertical-align:top;">:</td><td><div>Fer</div></td></tr></table></div>'
tRp285
sS'etype'
p286
S"<type 'exceptions.ValueError'>"
p287
sS'date'
p288
S'Sun Aug 07 17:42:08 2016'
p289
sS'response'
p290
g57
(S's\x13 \x00\x00<div><table><tr><td style="font-weight:bold;vertical-align:top;">body</td><td style="vertical-align:top;">:</td><td><div>&lt;cStringIO.StringO object at 0x087097C0&gt;</div></td></tr><tr><td style="font-weight:bold;vertical-align:top;">cookies</td><td style="vertical-align:top;">:</td><td><div><table><tr><td style="font-weight:bold;vertical-align:top;">session_id_sistema</td><td style="vertical-align:top;">:</td><td><div>127.0.0.1-a1a02dd0-0eda-4531-bd74-005859f73064<table><tr><td style="font-weight:bold;vertical-align:top;">comment</td><td style="vertical-align:top;">:</td><td><div></div></td></tr><tr><td style="font-weight:bold;vertical-align:top;">domain</td><td style="vertical-align:top;">:</td><td><div></div></td></tr><tr><td style="font-weight:bold;vertical-align:top;">expires</td><td style="vertical-align:top;">:</td><td><div></div></td></tr><tr><td style="font-weight:bold;vertical-align:top;">httponly</td><td style="vertical-align:top;">:</td><td><div></div></td></tr><tr><td style="font-weight:bold;vertical-align:top;">max-age</td><td style="vertical-align:top;">:</td><td><div></div></td></tr><tr><td style="font-weight:bold;vertical-align:top;">path</td><td style="vertical-align:top;">:</td><td><div>/</div></td></tr><tr><td style="font-weight:bold;vertical-align:top;">secure</td><td style="vertical-align:top;">:</td><td><div></div></td></tr><tr><td style="font-weight:bold;vertical-align:top;">version</td><td style="vertical-align:top;">:</td><td><div></div></td></tr></table></div></td></tr></table></div></td></tr><tr><td style="font-weight:bold;vertical-align:top;">delimiters</td><td style="vertical-align:top;">:</td><td><div><table><tr><td><div>{{</div></td></tr><tr><td><div>}}</div></td></tr></table></div></td></tr><tr><td style="font-weight:bold;vertical-align:top;">files</td><td style="vertical-align:top;">:</td><td><div><table></table></div></td></tr><tr><td style="font-weight:bold;vertical-align:top;">flash</td><td style="vertical-align:top;">:</td><td><div></div></td></tr><tr><td style="font-weight:bold;vertical-align:top;">form_label_separator</td><td style="vertical-align:top;">:</td><td><div></div></td></tr><tr><td style="font-weight:bold;vertical-align:top;">formstyle</td><td style="vertical-align:top;">:</td><td><div>bootstrap3_inline</div></td></tr><tr><td style="font-weight:bold;vertical-align:top;">generic_patterns</td><td style="vertical-align:top;">:</td><td><div><table><tr><td><div>*</div></td></tr></table></div></td></tr><tr><td style="font-weight:bold;vertical-align:top;">google_analytics_id</td><td style="vertical-align:top;">:</td><td><div>None</div></td></tr><tr><td style="font-weight:bold;vertical-align:top;">headers</td><td style="vertical-align:top;">:</td><td><div><table><tr><td style="font-weight:bold;vertical-align:top;">X-Powered-By</td><td style="vertical-align:top;">:</td><td><div>web2py</div></td></tr></table></div></td></tr><tr><td style="font-weight:bold;vertical-align:top;">logo</td><td style="vertical-align:top;">:</td><td><div><a class="navbar-brand" href="http://credivipweb.dyndns.org/" id="web2py-logo" target="_blank"><b>Credi<span>vip</span></b></a></div></td></tr><tr><td style="font-weight:bold;vertical-align:top;">menu</td><td style="vertical-align:top;">:</td><td><div><table><tr><td><div><table><tr><td><div>Inicio</div></td></tr><tr><td><div>False</div></td></tr><tr><td><div>/sistema/comercio/home</div></td></tr><tr><td><div><table></table></div></td></tr></table></div></td></tr><tr><td><div><table><tr><td><div>Comercios</div></td></tr><tr><td><div>False</div></td></tr><tr><td><div>#</div></td></tr><tr><td><div><table><tr><td><div><table><tr><td><div>Ver Comercios</div></td></tr><tr><td><div>False</div></td></tr><tr><td><div>/sistema/comercio/home</div></td></tr></table></div></td></tr><tr><td><div><li class="divider"></li></div></td></tr><tr><td><div><table><tr><td><div>Adherir Comercio</div></td></tr><tr><td><div>False</div></td></tr><tr><td><div>/sistema/comercio/AdherirComercio</div></td></tr></table></div></td></tr></table></div></td></tr></table></div></td></tr></table></div></td></tr><tr><td style="font-weight:bold;vertical-align:top;">meta</td><td style="vertical-align:top;">:</td><td><div><table><tr><td style="font-weight:bold;vertical-align:top;">author</td><td style="vertical-align:top;">:</td><td><div>Your Name &lt;you@example.com&gt;</div></td></tr><tr><td style="font-weight:bold;vertical-align:top;">description</td><td style="vertical-align:top;">:</td><td><div>a cool new app</div></td></tr><tr><td style="font-weight:bold;vertical-align:top;">generator</td><td style="vertical-align:top;">:</td><td><div>Web2py Web Framework</div></td></tr><tr><td style="font-weight:bold;vertical-align:top;">keywords</td><td style="vertical-align:top;">:</td><td><div><table><tr><td><div>web2py</div></td></tr><tr><td><div>python</div></td></tr><tr><td><div>framework</div></td></tr></table></div></td></tr></table></div></td></tr><tr><td style="font-weight:bold;vertical-align:top;">models_to_run</td><td style="vertical-align:top;">:</td><td><div><table><tr><td><div>^\\w+\\.py$</div></td></tr><tr><td><div>^comercio/\\w+\\.py$</div></td></tr><tr><td><div>^comercio/adherirTelefonos/\\w+\\.py$</div></td></tr></table></div></td></tr><tr><td style="font-weight:bold;vertical-align:top;">postprocessing</td><td style="vertical-align:top;">:</td><td><div><table></table></div></td></tr><tr><td style="font-weight:bold;vertical-align:top;">session_client</td><td style="vertical-align:top;">:</td><td><div>127.0.0.1</div></td></tr><tr><td style="font-weight:bold;vertical-align:top;">session_cookie_compression_level</td><td style="vertical-align:top;">:</td><td><div>None</div></td></tr><tr><td style="font-weight:bold;vertical-align:top;">session_cookie_expires</td><td style="vertical-align:top;">:</td><td><div>None</div></td></tr><tr><td style="font-weight:bold;vertical-align:top;">session_data_name</td><td style="vertical-align:top;">:</td><td><div>session_data_sistema</div></td></tr><tr><td style="font-weight:bold;vertical-align:top;">session_file</td><td style="vertical-align:top;">:</td><td><div>&lt;open file &#x27;C:\\\\Users\\\\Ferchu\\\\Desktop\\\\web2py\\\\applications\\\\sistema\\\\sessions\\\\0dd\\\\122\\\\127.0.0.1-a1a02dd0-0eda-4531-bd74-005859f73064&#x27;, mode &#x27;rb+&#x27; at 0x046DCA70&gt;</div></td></tr><tr><td style="font-weight:bold;vertical-align:top;">session_filename</td><td style="vertical-align:top;">:</td><td><div>C:\\Users\\Ferchu\\Desktop\\web2py\\applications\\sistema\\sessions\\127.0.0.1-a1a02dd0-0eda-4531-bd74-005859f73064</div></td></tr><tr><td style="font-weight:bold;vertical-align:top;">session_hash</td><td style="vertical-align:top;">:</td><td><div>bd7b8409a343859c7d25239b4e171e35</div></td></tr><tr><td style="font-weight:bold;vertical-align:top;">session_id</td><td style="vertical-align:top;">:</td><td><div>127.0.0.1-a1a02dd0-0eda-4531-bd74-005859f73064</div></td></tr><tr><td style="font-weight:bold;vertical-align:top;">session_id_name</td><td style="vertical-align:top;">:</td><td><div>session_id_sistema</div></td></tr><tr><td style="font-weight:bold;vertical-align:top;">session_locked</td><td style="vertical-align:top;">:</td><td><div>True</div></td></tr><tr><td style="font-weight:bold;vertical-align:top;">session_masterapp</td><td style="vertical-align:top;">:</td><td><div>sistema</div></td></tr><tr><td style="font-weight:bold;vertical-align:top;">session_new</td><td style="vertical-align:top;">:</td><td><div>False</div></td></tr><tr><td style="font-weight:bold;vertical-align:top;">session_storage_type</td><td style="vertical-align:top;">:</td><td><div>file</div></td></tr><tr><td style="font-weight:bold;vertical-align:top;">status</td><td style="vertical-align:top;">:</td><td><div>200</div></td></tr><tr><td style="font-weight:bold;vertical-align:top;">subtitle</td><td style="vertical-align:top;">:</td><td><div></div></td></tr><tr><td style="font-weight:bold;vertical-align:top;">title</td><td style="vertical-align:top;">:</td><td><div>Sistema</div></td></tr><tr><td style="font-weight:bold;vertical-align:top;">view</td><td style="vertical-align:top;">:</td><td><div>comercio/adherirTelefonos.html</div></td></tr></table></div>'
tRp291
sS'locals'
p292
(dp293
S'referenced'
p294
S"'Comercio'"
p295
sS'obj'
p296
S"'None'"
p297
sS'self'
p298
S'<pydal.adapters.sqlite.SQLiteAdapter object>'
p299
sS'r'
S'None'
p300
sS'fieldtype'
p301
S"'reference Comercio'"
p302
sS'field_is_type'
p303
S'<built-in method startswith of str object>'
p304
sssS'traceback'
p305
S'Traceback (most recent call last):\n  File "C:\\Users\\Ferchu\\Desktop\\web2py\\gluon\\restricted.py", line 227, in restricted\n    exec ccode in environment\n  File "C:\\Users\\Ferchu\\Desktop\\web2py\\applications\\sistema\\controllers/comercio.py", line 61, in <module>\n  File "C:\\Users\\Ferchu\\Desktop\\web2py\\gluon\\globals.py", line 417, in <lambda>\n    self._caller = lambda f: f()\n  File "C:\\Users\\Ferchu\\Desktop\\web2py\\applications\\sistema\\controllers/comercio.py", line 53, in adherirTelefonos\n    db.Telefono.insert(idCom=str(datos.Codigo),Prefijo=str(datos.Prefijos),Numero=str(datos.Telefonos),Contacto=str(datos.Nombres))\n  File "C:\\Users\\Ferchu\\Desktop\\web2py\\gluon\\packages\\dal\\pydal\\objects.py", line 726, in insert\n    ret = self._db._adapter.insert(self, self._listify(fields))\n  File "C:\\Users\\Ferchu\\Desktop\\web2py\\gluon\\packages\\dal\\pydal\\adapters\\base.py", line 739, in insert\n    query = self._insert(table,fields)\n  File "C:\\Users\\Ferchu\\Desktop\\web2py\\gluon\\packages\\dal\\pydal\\adapters\\base.py", line 730, in _insert\n    values = \',\'.join(self.expand(v, f.type) for f, v in fields)\n  File "C:\\Users\\Ferchu\\Desktop\\web2py\\gluon\\packages\\dal\\pydal\\adapters\\base.py", line 730, in <genexpr>\n    values = \',\'.join(self.expand(v, f.type) for f, v in fields)\n  File "C:\\Users\\Ferchu\\Desktop\\web2py\\gluon\\packages\\dal\\pydal\\adapters\\base.py", line 962, in expand\n    rv = self.represent(expression, field_type)\n  File "C:\\Users\\Ferchu\\Desktop\\web2py\\gluon\\packages\\dal\\pydal\\adapters\\base.py", line 1442, in represent\n    return str(long(obj))\nValueError: invalid literal for long() with base 10: \'None\'\n'
p306
s.