(dp1
S'output'
p2
S"<type 'exceptions.AttributeError'> 'Rows' object has no attribute 'Codigo'"
p3
sS'layer'
p4
S'C:\\Users\\Ferchu\\Desktop\\web2py\\applications\\Sistema\\views\\comercio/Comercios.html'
p5
sS'code'
p6
S'response.write(\'<!DOCTYPE html>\\n<!--[if (gt IE 9)|!(IE)]><!--> <html class="no-js" lang="\', escape=False)\nresponse.write(T.accepted_language or \'en\')\nresponse.write(\'"> <!--<![endif]-->\\n  <head>\\n    <meta charset="utf-8">\\n    <!-- www.phpied.com/conditional-comments-block-downloads/ -->\\n    <!-- Always force latest IE rendering engine\\n         (even in intranet) & Chrome Frame\\n         Remove this if you use the .htaccess -->\\n    <meta http-equiv="X-UA-Compatible" content="IE=edge\', escape=False)\nresponse.write(not request.is_local and \',chrome=1\' or \'\')\nresponse.write(\'">\\n    <!--  Mobile Viewport Fix\\n          j.mp/mobileviewport & davidbcalhoun.com/2010/viewport-metatag\\n          device-width: Occupy full width of the screen in its current orientation\\n          initial-scale = 1.0 retains dimensions instead of zooming out if page height > device height\\n          user-scalable = yes allows the user to zoom in -->\\n    <meta name="viewport" content="width=device-width, initial-scale=1.0">\\n    <title>\', escape=False)\nresponse.write(response.title or request.application)\nresponse.write(\'</title>\\n    <!-- http://dev.w3.org/html5/markup/meta.name.html -->\\n    <meta name="application-name" content="\', escape=False)\nresponse.write(request.application)\nresponse.write(\'">\\n    <!-- Speaking of Google, don\\\'t forget to set your site up:\\n         http://google.com/webmasters -->\\n    <meta name="google-site-verification" content="">\\n    <!-- include stylesheets -->\\n    <link rel="stylesheet" href="\', escape=False)\nresponse.write(URL(\'static\',\'css/bootstrap.min.css\'))\nresponse.write(\'"/>\\n    <link rel="stylesheet" href="\', escape=False)\nresponse.write(URL(\'static\',\'css/web2py-bootstrap3.css\'))\nresponse.write(\'"/>\\n    <link rel="shortcut icon" href="\', escape=False)\nresponse.write(URL(\'static\',\'images/favicon.ico\'))\nresponse.write(\'" type="image/x-icon">\\n    <link rel="apple-touch-icon" href="\', escape=False)\nresponse.write(URL(\'static\',\'images/favicon.png\'))\nresponse.write(\'">\\n    <!-- All JavaScript at the bottom, except for Modernizr which enables\\n         HTML5 elements & feature detects -->\\n    <script src="\', escape=False)\nresponse.write(URL(\'static\',\'js/modernizr-2.8.3.min.js\'))\nresponse.write(\'"></script>\\n    <!--[if lt IE 9]>\\n        <script src="\', escape=False)\nresponse.write(URL(\'static\',\'js/respond-1.4.2.min.js\'))\nresponse.write(\'"></script>\\n        <![endif]-->\\n    <!-- Favicons -->\\n    \', escape=False)\nresponse.write(\'<script type="text/javascript"><!--\\n    // These variables are used by the web2py_ajax_init function in web2py_ajax.js (which is loaded below).\\n    var w2p_ajax_confirm_message = "\', escape=False)\nresponse.write(T(\'Are you sure you want to delete this object?\'))\nresponse.write(\'";\\n    var w2p_ajax_disable_with_message = "\', escape=False)\nresponse.write(T(\'Working...\'))\nresponse.write(\'";\\n    var w2p_ajax_date_format = "\', escape=False)\nresponse.write(T(\'%Y-%m-%d\'))\nresponse.write(\'";\\n    var w2p_ajax_datetime_format = "\', escape=False)\nresponse.write(T(\'%Y-%m-%d %H:%M:%S\'))\nresponse.write(\'";\\n    var ajax_error_500 = \\\'\', escape=False)\nresponse.write(T.M(\'An error occured, please [[reload %s]] the page\') % URL(args=request.args, vars=request.get_vars))\nresponse.write("\'\\n    //--></script>\\n", escape=False)\nresponse.files.insert(0,URL(\'static\',\'js/jquery.js\'))\nresponse.files.insert(1,URL(\'static\',\'css/calendar.css\'))\nresponse.files.insert(2,URL(\'static\',\'js/calendar.js\'))\nresponse.files.insert(3,URL(\'static\',\'js/web2py.js\'))\nresponse.include_meta()\nresponse.include_files()\nresponse.write(\'\\n\', escape=False)\nresponse.write(\' <!-- this includes jquery.js, calendar.js/.css and web2py.js -->\\n    \', escape=False)\nresponse.write(\'\\n    \', escape=False)\n# using sidebars need to know what sidebar you want to use\nmc0 = \'col-md-12\'\nmc1 = \'col-md-9\'\nmc2 = \'col-md-6\'\nleft_sidebar_enabled = globals().get(\'left_sidebar_enabled\', False)\nright_sidebar_enabled = globals().get(\'right_sidebar_enabled\', False)\nmiddle_column = {0: mc0, 1: mc1, 2: mc2}[\n(left_sidebar_enabled and 1 or 0)+(right_sidebar_enabled and 1 or 0)]\nresponse.write(\'\\n  </head>\\n  <body>\\n    <!--[if lt IE 8]><p class="browserupgrade">You are using an <strong>outdated</strong> browser. Please <a href="http://browsehappy.com/">upgrade your browser</a> to improve your experience.</p><![endif]-->\\n    <div class="w2p_flash alert alert-dismissable">\', escape=False)\nresponse.write(response.flash or \'\')\nresponse.write(\'</div>\\n    <!-- Navbar ======================================= -->\\n    <nav class="navbar navbar-default navbar-fixed-top" role="navigation">\\n      <div class="container-fluid">\\n        <div class="navbar-header">\\n          <button type="button" class="navbar-toggle" data-toggle="collapse" data-target=".navbar-collapse">\\n            <span class="sr-only">Toggle navigation</span>\\n            <span class="icon-bar"></span>\\n            <span class="icon-bar"></span>\\n            <span class="icon-bar"></span>\\n          </button>\\n          \', escape=False)\nresponse.write(response.logo or \'\')\nresponse.write(\'\\n        </div>\\n        <div class="collapse navbar-collapse navbar-ex1-collapse">\\n          <ul class="nav navbar-nav navbar-right">\\n            <li class="dropdown" data-w2pmenulevel="l0">\\n            <a class="dropdown-toggle" data-toggle="dropdown" href="#" rel="nofollow">Acceder\\n            </a>\\n\\n            <ul class="dropdown-menu">\\n            \\n            <li><a href="#" rel="nofollow"><i class="icon icon-user glyphicon glyphicon-user"></i>Registrarse</a>\\n            </li>\\n            \\n            <li><a href="#" rel="nofollow"><i class="icon icon-lock glyphicon glyphicon-lock"></i> \\xc2\\xbfOlvid\\xc3\\xb3 la contrase\\xc3\\xb1a?</a></li>\\n\\n            <li class="divider"></li>\\n\\n            <li><a href="#" rel="nofollow"><i class="icon icon-off glyphicon glyphicon-off"></i> Iniciar Session</a>\\n            </li>\\n            </ul>\\n            </li>\\n          </ul>\\n\\n\\n          \', escape=False)\nif response.menu:\n    response.write(\'\\n          \', escape=False)\n    response.write(MENU(response.menu, _class=\'nav navbar-nav\',li_class=\'dropdown\',ul_class=\'dropdown-menu\'))\n    response.write(\'\\n          \', escape=False)\n    pass\nresponse.write(\'\\n        </div>\\n      </div>\\n    </nav>\\n    <!-- Masthead ===================================== -->    \\n    \', escape=False)\nresponse.write(\'\\n    \', escape=False)\nresponse.write(\'\\n    <!-- Main ========================================= -->\\n    <!-- Begin page content -->\\n    <div class="container-fluid main-container">\\n      \', escape=False)\nif left_sidebar_enabled:\n    response.write(\'\\n        <div class="col-md-3 left-sidebar">\\n            \', escape=False)\n    response.write(\'\\n            <h3>Left Sidebar</h3>\\n            <p></p>\\n            \', escape=False)\n    response.write(\'\\n        </div>\\n      \', escape=False)\n    pass\nresponse.write(\'\\n\\n      <div class="\', escape=False)\nresponse.write(middle_column)\nresponse.write(\'">\\n        \', escape=False)\nresponse.write(\'\\n        \', escape=False)\nresponse.write(\'\\r\\n\\r\\n<head>\\r\\n\\t<link rel="stylesheet" href="../static/css/comercio-carga.css">\\r\\n</head>\\r\\n<body>\\r\\n<div class="container">\\r\\n\\t<div class="row">\\r\\n\\t\\t<div class="col-md-12">\\r\\n\\t\\t\\t<form action="\', escape=False)\nresponse.write(URL(\'comercio\',\'adherir\'))\nresponse.write(\'" method="post">\\r\\n\\t\\t\\t\\t<div class="row">\\r\\n\\t\\t\\t\\t\\t<div class="col-md-4">\\r\\n\\t\\t\\t\\t\\t\\t<div style="background-color: rgba(200, 0, 0, .5); min-height:450px;" class="panel panel-default">\\r\\n\\t\\t\\t\\t\\t\\t\\r\\n\\t\\t\\t\\t        \\t<center>\\r\\n\\t\\t\\t\\t        \\t\\t<span><font class="Titulos" color="yellow" size="5px">COMERCIO</font></span>\\r\\n\\t\\t\\t\\t        \\t</center>\\r\\n\\r\\n\\t\\t\\t\\t          \\t<hr>\\r\\n\\t\\t\\t\\t          \\t<div class="row">\\r\\n\\t\\t\\t\\t          \\t\\t<div class="col-md-4">\\r\\n\\t\\t\\t\\t          \\t\\t\\t <div style="margin-left:6%">\\r\\n\\t\\t\\t\\t\\t\\t\\t\\t            <label>\\r\\n\\t\\t\\t\\t\\t\\t\\t\\t              Nro Sucursal \\r\\n\\t\\t\\t\\t\\t\\t\\t\\t            </label>\\r\\n\\t\\t\\t\\t\\t\\t\\t\\t        <input list="Sucursales" name="Codigo" value="\', escape=False)\nresponse.write(comercios.Codigo)\nresponse.write(\'" id="CodSuc">\\r\\n\\t\\t\\t\\t\\t\\t\\t\\t\\t\\t  <datalist id="Sucursales">\\r\\n\\t\\t\\t\\t\\t\\t\\t\\t\\t\\t    <option value="100">\\r\\n\\t\\t\\t\\t\\t\\t\\t\\t\\t\\t    <option value="101">\\r\\n\\t\\t\\t\\t\\t\\t\\t\\t\\t\\t    <option value="102">\\r\\n\\t\\t\\t\\t\\t\\t\\t\\t\\t\\t  </datalist> \\r\\n\\t\\t\\t\\t\\t\\t\\t\\t     </div>\\t\\t\\t\\t          \\t\\t\\t\\r\\n\\t\\t\\t\\t          \\t\\t</div>\\r\\n\\t\\t\\t\\t          \\t\\t<div class="col-md-8">\\r\\n\\t\\t\\t\\t          \\t\\t\\t<div style="margin-left:2%">\\r\\n\\t\\t\\t\\t\\t\\t\\t            <label>\\r\\n\\t\\t\\t\\t\\t\\t\\t              Nombre\\r\\n\\t\\t\\t\\t\\t\\t\\t            </label>\\r\\n\\t\\t\\t\\t\\t\\t\\t            <input type="text" name="Nombre"/>\\r\\n\\t\\t\\t\\t\\t\\t\\t        </div>\\r\\n\\t\\t\\t\\t          \\t\\t</div>\\r\\n\\t\\t\\t\\t          \\t</div>\\r\\n\\t\\t\\t\\t\\t       \\r\\n\\r\\n\\t\\t\\t        \\t\\t\\r\\n\\r\\n\\t\\t\\t\\t\\t        \\r\\n\\r\\n\\t\\t\\t\\t\\t        <hr>\\r\\n\\t\\t\\t\\t\\t        <div style="margin-left:2%">\\r\\n\\t\\t\\t\\t\\t            <label>\\r\\n\\t\\t\\t\\t\\t              Rubro\\r\\n\\t\\t\\t\\t\\t            </label>\\r\\n\\t\\t\\t\\t\\t            <input type="text" name="Rubro"/>\\r\\n\\t\\t\\t\\t\\t        </div>\\r\\n\\t\\t\\t\\t\\t        <hr>\\r\\n\\t\\t\\t\\t\\t        <div class="row">\\r\\n\\t\\t\\t\\t\\t        \\t<div class="col-md-6">\\r\\n\\t\\t\\t\\t\\t\\t\\t        \\t<div style="margin-left:4%">\\r\\n\\t\\t\\t\\t\\t\\t\\t            <label>\\r\\n\\t\\t\\t\\t\\t\\t\\t              Provincia\\r\\n\\t\\t\\t\\t\\t\\t\\t            </label>\\r\\n\\t\\t\\t\\t\\t\\t\\t            <input list="Provincias" name="Provincia">\\r\\n\\t\\t\\t\\t\\t\\t\\t\\t\\t\\t  <datalist id="Provincias">\\r\\n\\t\\t\\t\\t\\t\\t\\t\\t\\t\\t    <option value="Chaco">\\r\\n\\t\\t\\t\\t\\t\\t\\t\\t\\t\\t    <option value="Corrientes">\\r\\n\\t\\t\\t\\t\\t\\t\\t\\t\\t\\t    <option value="Formosa">\\r\\n\\t\\t\\t\\t\\t\\t\\t\\t\\t\\t  </datalist> \\r\\n\\t\\t\\t\\t\\t\\t\\t        </div>\\r\\n\\t\\t\\t\\t\\t\\t\\t    </div>\\r\\n\\t\\t\\t\\t\\t        \\t<div class="col-md-6">\\r\\n\\t\\t\\t\\t\\t        \\t\\t <div style="margin-left:2%">\\r\\n\\t\\t\\t\\t\\t\\t\\t            <label>\\r\\n\\t\\t\\t\\t\\t\\t\\t              Localidad\\r\\n\\t\\t\\t\\t\\t\\t\\t            </label>\\r\\n\\t\\t\\t\\t\\t\\t\\t            <input list="Localidades" name="Localidad">\\r\\n\\t\\t\\t\\t\\t\\t\\t\\t\\t\\t  <datalist id="Localidades">\\r\\n\\t\\t\\t\\t\\t\\t\\t\\t\\t\\t    <option value="Resistencia">\\r\\n\\t\\t\\t\\t\\t\\t\\t\\t\\t\\t    <option value="Saens Pe\\xc3\\xb1a">\\r\\n\\t\\t\\t\\t\\t\\t\\t\\t\\t\\t    <option value="Goya">\\r\\n\\t\\t\\t\\t\\t\\t\\t\\t\\t\\t    <option value="Esquina">\\r\\n\\t\\t\\t\\t\\t\\t\\t\\t\\t\\t    <option value="Curuzu Cuatia">\\r\\n\\t\\t\\t\\t\\t\\t\\t\\t\\t\\t  </datalist> \\r\\n\\t\\t\\t\\t\\t\\t\\t        </div>\\r\\n\\r\\n\\t\\t\\t\\t\\t        \\t</div>\\r\\n\\t\\t\\t\\t\\t        </div>\\r\\n\\t\\t\\t\\t\\t        \\r\\n\\t\\t\\t\\t\\t        <hr>\\r\\n\\t\\t\\t\\t\\t       \\r\\n\\t\\t\\t\\t\\t        <div class="row">\\r\\n\\t\\t\\t\\t\\t        \\t<div class="col-md-3">\\r\\n\\t\\t\\t\\t\\t\\t        \\t<div style="margin-left:7%">\\r\\n\\t\\t\\t\\t\\t\\t\\t            <label>\\r\\n\\t\\t\\t\\t\\t\\t\\t              Cod. Postal\\r\\n\\t\\t\\t\\t\\t\\t\\t            </label>\\r\\n\\t\\t\\t\\t\\t\\t\\t            <input type="text" name="CodigoPostal"/>\\r\\n\\t\\t\\t\\t\\t\\t        \\t</div>\\r\\n\\t\\t\\t\\t\\t\\t        </div>\\r\\n\\t\\t\\t\\t\\t\\t        <div class="col-md-9">\\r\\n\\t\\t\\t\\t\\t\\t        \\t<div style="margin-left:2%">\\r\\n\\t\\t\\t\\t\\t\\t\\t            <label>\\r\\n\\t\\t\\t\\t\\t\\t\\t              Direcci\\xc3\\xb3n\\r\\n\\t\\t\\t\\t\\t\\t\\t            </label>\\r\\n\\t\\t\\t\\t\\t\\t\\t            <input type="text" name="Direccion"/>\\r\\n\\t\\t\\t\\t\\t\\t\\t        </div>\\r\\n\\t\\t\\t\\t\\t\\t        </div>\\r\\n\\t\\t\\t\\t\\t        </div>\\r\\n\\t\\t\\t\\t\\t        \\r\\n\\t\\t\\t\\t\\t        <hr>\\r\\n\\r\\n\\t\\t\\t\\t\\t        <center>\\r\\n\\t\\t\\t\\t        \\t\\t<span><font class="Titulos" color="yellow" size="4px">Cuenta en el sistema</font></span>\\r\\n\\t\\t\\t\\t        \\t</center>\\r\\n\\r\\n\\t\\t\\t\\t\\t       \\t<hr>\\r\\n\\t\\t\\t\\t\\t        <div class="row">\\r\\n\\t\\t\\t\\t\\t        \\t<div class="col-md-4">\\r\\n\\t\\t\\t\\t\\t\\t        \\t<div style="margin-left:6%">\\r\\n\\t\\t\\t\\t\\t\\t\\t            <label>\\r\\n\\t\\t\\t\\t\\t\\t\\t              Usuario\\r\\n\\t\\t\\t\\t\\t\\t\\t            </label>\\r\\n\\t\\t\\t\\t\\t\\t\\t            <input type="text" name="Usuario"/>\\r\\n\\t\\t\\t\\t\\t\\t        \\t</div>\\r\\n\\t\\t\\t\\t\\t\\t        </div>\\r\\n\\t\\t\\t\\t\\t\\t        <div class="col-md-8">\\r\\n\\t\\t\\t\\t\\t\\t        \\t<div style="margin-left:2%">\\r\\n\\t\\t\\t\\t\\t\\t\\t            <label>\\r\\n\\t\\t\\t\\t\\t\\t\\t              Contrase\\xc3\\xb1a\\r\\n\\t\\t\\t\\t\\t\\t\\t            </label>\\r\\n\\t\\t\\t\\t\\t\\t\\t            <input type="text" name="Pass"/>\\r\\n\\t\\t\\t\\t\\t\\t\\t        </div>\\r\\n\\t\\t\\t\\t\\t\\t        </div>\\r\\n\\t\\t\\t\\t\\t        </div>\\r\\n\\t\\t\\t\\t\\t        \\r\\n\\t\\t\\t\\t\\t        \\r\\n\\r\\n\\r\\n\\r\\n\\t\\t\\t          \\t\\t<br>\\r\\n\\r\\n\\t\\t\\t          \\t</div>\\r\\n\\t\\t\\t        </div>\\r\\n\\t\\t\\t          \\r\\n\\t\\t\\t          <!-- Fin columna 1 -->\\r\\n\\t\\t\\t          <div class="col-md-4">\\r\\n\\t\\t\\t\\t          <div style="background-color: rgba(200, 0, 0, .5); min-height: 450px;" class="panel panel-default">\\r\\n\\t\\t\\t\\t          \\t<center>\\r\\n\\t\\t\\t\\t        \\t\\t<span><font class="Titulos" color="yellow" size="5px">CONTACTO</font></span>\\r\\n\\t\\t\\t\\t        \\t</center>\\r\\n\\t\\t\\t\\t        \\t\\r\\n\\t\\t\\t\\t          </div>\\r\\n\\t\\t\\t          </div>\\r\\n\\t\\t\\t          <!-- Fin columna 2 -->\\r\\n\\t\\t\\t          <div class="col-md-4">\\r\\n\\t\\t\\t\\t          <div style="background-color: rgba(200, 0, 0, .5); min-height: 450px;" class="panel panel-default">\\r\\n\\t\\t\\t\\t          \\t <center>\\r\\n\\t\\t\\t\\t        \\t\\t<span><font class="Titulos" color="yellow" size="5px">PLANES</font></span>\\r\\n\\t\\t\\t\\t        \\t</center>\\r\\n\\t\\t\\t\\t          </div>\\r\\n\\t\\t\\t          </div>\\r\\n\\r\\n\\r\\n\\r\\n\\r\\n\\t\\t\\t           <!-- Button down -->\\r\\n\\t\\t\\t    </div>\\r\\n\\r\\n\\t\\t\\t    <div style="background-color: rgba(200, 0, 0, .5);" class="panel panel-default">\\r\\n\\t\\t\\t\\t    <div class="row">\\r\\n\\t\\t\\t         \\t<div class="col-md-12">\\r\\n\\t\\t\\t\\t          <div align="center">\\r\\n\\t\\t\\t\\t            <button id="boton-adherir" class="button button-block"/>Adherir Comercio</button>\\r\\n\\t\\t\\t\\t          </div>\\r\\n\\t\\t\\t\\t   \\t\\t</div>\\r\\n\\t\\t         \\t</div>\\r\\n                   <br>\\r\\n                </div>\\r\\n\\t           \\r\\n\\t\\t\\t</form>\\r\\n\\r\\n\\t\\t</div>\\r\\n\\t</div>\\r\\n</div>\\r\\n\\r\\n</body>\', escape=False)\nresponse.write(\'\\n        \', escape=False)\nresponse.write(\'\\n      </div>\\n\\n      \', escape=False)\nif right_sidebar_enabled:\n    response.write(\'\\n        <div class="col-md-3">\\n            \', escape=False)\n    response.write(\'\\n            <h3>Right Sidebar</h3>\\n            <p></p>\\n            \', escape=False)\n    response.write(\'\\n        </div>\\n      \', escape=False)\n    pass\nresponse.write(\'\\n\\n    </div>\\n\\n    \', escape=False)\nresponse.write(\' <!-- this is default footer -->      \\n    <footer class="footer">\\n      <div class="container-fluid">\\n          <div id="poweredBy" class="pull-right">\\n            <a href="#" style="color:red">Servicio T\\xc3\\xa9cnico</a>\\n          </div>\\n      </div>\\n    </footer>\\n    \', escape=False)\nresponse.write(\'\\n    <!-- The javascript =============================== -->\\n    <script src="\', escape=False)\nresponse.write(URL(\'static\',\'js/bootstrap.min.js\'))\nresponse.write(\'"></script>\\n    <script src="\', escape=False)\nresponse.write(URL(\'static\',\'js/web2py-bootstrap3.js\'))\nresponse.write(\'"></script>\\n    <script src="\', escape=False)\nresponse.write(URL(\'static\',\'js/comercio.js\'))\nresponse.write(\'"></script>\\n    \', escape=False)\nresponse.write(\'\\n    \', escape=False)\nif response.google_analytics_id:\n    response.write(\'\\n    <!-- Analytics ==================================== -->\\n    <script src="\', escape=False)\n    response.write(URL(\'static\',\'js/analytics.min.js\'))\n    response.write(\'"></script>\\n    <script type="text/javascript">\\n      analytics.initialize({\\n      \\\'Google Analytics\\\':{trackingId:\\\'\', escape=False)\n    response.write(response.google_analytics_id)\n    response.write("\'}\\n      });\\n    </script>\\n    ", escape=False)\n    pass\nresponse.write(\'\\n    <!-- Share ============================y============ -->\\n    <script src="\', escape=False)\nresponse.write(URL(\'static\',\'js/share.js\',vars=dict(static=URL(\'static\',\'images\'))))\nresponse.write(\'"></script>\\n  </body>\\n</html>\\n\', escape=False)'
p7
sS'snapshot'
p8
(dp9
S'exception'
p10
(dp11
S'__hash__'
p12
S"<method-wrapper '__hash__' of exceptions.AttributeError object>"
p13
sS'__setattr__'
p14
S"<method-wrapper '__setattr__' of exceptions.AttributeError object>"
p15
sS'__reduce_ex__'
p16
S'<built-in method __reduce_ex__ of exceptions.AttributeError object>'
p17
sS'__getslice__'
p18
S"<method-wrapper '__getslice__' of exceptions.AttributeError object>"
p19
sS'__getitem__'
p20
S"<method-wrapper '__getitem__' of exceptions.AttributeError object>"
p21
sS'__setstate__'
p22
S'<built-in method __setstate__ of exceptions.AttributeError object>'
p23
sS'__reduce__'
p24
S'<built-in method __reduce__ of exceptions.AttributeError object>'
p25
sS'__str__'
p26
S"<method-wrapper '__str__' of exceptions.AttributeError object>"
p27
sS'__format__'
p28
S'<built-in method __format__ of exceptions.AttributeError object>'
p29
sS'__getattribute__'
p30
S"<method-wrapper '__getattribute__' of exceptions.AttributeError object>"
p31
sS'__class__'
p32
S"<type 'exceptions.AttributeError'>"
p33
sS'__unicode__'
p34
S'<built-in method __unicode__ of exceptions.AttributeError object>'
p35
sS'__delattr__'
p36
S"<method-wrapper '__delattr__' of exceptions.AttributeError object>"
p37
sS'__subclasshook__'
p38
S'<built-in method __subclasshook__ of type object>'
p39
sS'__repr__'
p40
S"<method-wrapper '__repr__' of exceptions.AttributeError object>"
p41
sS'args'
p42
S'("\'Rows\' object has no attribute \'Codigo\'",)'
p43
sS'__dict__'
p44
S'{}'
p45
sS'__sizeof__'
p46
S'<built-in method __sizeof__ of exceptions.AttributeError object>'
p47
sS'__doc__'
p48
S"'Attribute not found.'"
p49
sS'__init__'
p50
S"<method-wrapper '__init__' of exceptions.AttributeError object>"
p51
sS'__new__'
p52
S'<built-in method __new__ of type object>'
p53
ssS'evalue'
p54
S"'Rows' object has no attribute 'Codigo'"
p55
sS'request'
p56
cgluon.html
XML_unpickle
p57
(S'spj\x00\x00<div><table><tr><td style="font-weight:bold;vertical-align:top;">ajax</td><td style="vertical-align:top;">:</td><td><div>False</div></td></tr><tr><td style="font-weight:bold;vertical-align:top;">application</td><td style="vertical-align:top;">:</td><td><div>Sistema</div></td></tr><tr><td style="font-weight:bold;vertical-align:top;">args</td><td style="vertical-align:top;">:</td><td><div><table></table></div></td></tr><tr><td style="font-weight:bold;vertical-align:top;">cid</td><td style="vertical-align:top;">:</td><td><div>None</div></td></tr><tr><td style="font-weight:bold;vertical-align:top;">client</td><td style="vertical-align:top;">:</td><td><div>192.168.0.12</div></td></tr><tr><td style="font-weight:bold;vertical-align:top;">controller</td><td style="vertical-align:top;">:</td><td><div>comercio</div></td></tr><tr><td style="font-weight:bold;vertical-align:top;">cookies</td><td style="vertical-align:top;">:</td><td><div><table><tr><td style="font-weight:bold;vertical-align:top;">session_id_admin</td><td style="vertical-align:top;">:</td><td><div>192.168.0.12-64d296ff-704d-485d-a18b-da48da203b63<table><tr><td style="font-weight:bold;vertical-align:top;">comment</td><td style="vertical-align:top;">:</td><td><div></div></td></tr><tr><td style="font-weight:bold;vertical-align:top;">domain</td><td style="vertical-align:top;">:</td><td><div></div></td></tr><tr><td style="font-weight:bold;vertical-align:top;">expires</td><td style="vertical-align:top;">:</td><td><div></div></td></tr><tr><td style="font-weight:bold;vertical-align:top;">httponly</td><td style="vertical-align:top;">:</td><td><div></div></td></tr><tr><td style="font-weight:bold;vertical-align:top;">max-age</td><td style="vertical-align:top;">:</td><td><div></div></td></tr><tr><td style="font-weight:bold;vertical-align:top;">path</td><td style="vertical-align:top;">:</td><td><div></div></td></tr><tr><td style="font-weight:bold;vertical-align:top;">secure</td><td style="vertical-align:top;">:</td><td><div></div></td></tr><tr><td style="font-weight:bold;vertical-align:top;">version</td><td style="vertical-align:top;">:</td><td><div></div></td></tr></table></div></td></tr><tr><td style="font-weight:bold;vertical-align:top;">session_id_brainchaco</td><td style="vertical-align:top;">:</td><td><div>192.168.0.12-1b849ca3-fb86-4923-b17d-f926a70fe7fa<table><tr><td style="font-weight:bold;vertical-align:top;">comment</td><td style="vertical-align:top;">:</td><td><div></div></td></tr><tr><td style="font-weight:bold;vertical-align:top;">domain</td><td style="vertical-align:top;">:</td><td><div></div></td></tr><tr><td style="font-weight:bold;vertical-align:top;">expires</td><td style="vertical-align:top;">:</td><td><div></div></td></tr><tr><td style="font-weight:bold;vertical-align:top;">httponly</td><td style="vertical-align:top;">:</td><td><div></div></td></tr><tr><td style="font-weight:bold;vertical-align:top;">max-age</td><td style="vertical-align:top;">:</td><td><div></div></td></tr><tr><td style="font-weight:bold;vertical-align:top;">path</td><td style="vertical-align:top;">:</td><td><div></div></td></tr><tr><td style="font-weight:bold;vertical-align:top;">secure</td><td style="vertical-align:top;">:</td><td><div></div></td></tr><tr><td style="font-weight:bold;vertical-align:top;">version</td><td style="vertical-align:top;">:</td><td><div></div></td></tr></table></div></td></tr><tr><td style="font-weight:bold;vertical-align:top;">session_id_sistema</td><td style="vertical-align:top;">:</td><td><div>192.168.0.12-3579a231-a416-44c5-8c08-5f668132fef9<table><tr><td style="font-weight:bold;vertical-align:top;">comment</td><td style="vertical-align:top;">:</td><td><div></div></td></tr><tr><td style="font-weight:bold;vertical-align:top;">domain</td><td style="vertical-align:top;">:</td><td><div></div></td></tr><tr><td style="font-weight:bold;vertical-align:top;">expires</td><td style="vertical-align:top;">:</td><td><div></div></td></tr><tr><td style="font-weight:bold;vertical-align:top;">httponly</td><td style="vertical-align:top;">:</td><td><div></div></td></tr><tr><td style="font-weight:bold;vertical-align:top;">max-age</td><td style="vertical-align:top;">:</td><td><div></div></td></tr><tr><td style="font-weight:bold;vertical-align:top;">path</td><td style="vertical-align:top;">:</td><td><div></div></td></tr><tr><td style="font-weight:bold;vertical-align:top;">secure</td><td style="vertical-align:top;">:</td><td><div></div></td></tr><tr><td style="font-weight:bold;vertical-align:top;">version</td><td style="vertical-align:top;">:</td><td><div></div></td></tr></table></div></td></tr><tr><td style="font-weight:bold;vertical-align:top;">session_id_welcome</td><td style="vertical-align:top;">:</td><td><div>192.168.0.12-711da602-6a33-452b-8761-29584c33dcd1<table><tr><td style="font-weight:bold;vertical-align:top;">comment</td><td style="vertical-align:top;">:</td><td><div></div></td></tr><tr><td style="font-weight:bold;vertical-align:top;">domain</td><td style="vertical-align:top;">:</td><td><div></div></td></tr><tr><td style="font-weight:bold;vertical-align:top;">expires</td><td style="vertical-align:top;">:</td><td><div></div></td></tr><tr><td style="font-weight:bold;vertical-align:top;">httponly</td><td style="vertical-align:top;">:</td><td><div></div></td></tr><tr><td style="font-weight:bold;vertical-align:top;">max-age</td><td style="vertical-align:top;">:</td><td><div></div></td></tr><tr><td style="font-weight:bold;vertical-align:top;">path</td><td style="vertical-align:top;">:</td><td><div></div></td></tr><tr><td style="font-weight:bold;vertical-align:top;">secure</td><td style="vertical-align:top;">:</td><td><div></div></td></tr><tr><td style="font-weight:bold;vertical-align:top;">version</td><td style="vertical-align:top;">:</td><td><div></div></td></tr></table></div></td></tr></table></div></td></tr><tr><td style="font-weight:bold;vertical-align:top;">env</td><td style="vertical-align:top;">:</td><td><div><table><tr><td style="font-weight:bold;vertical-align:top;">CONTENT_LENGTH</td><td style="vertical-align:top;">:</td><td><div>10</div></td></tr><tr><td style="font-weight:bold;vertical-align:top;">CONTENT_TYPE</td><td style="vertical-align:top;">:</td><td><div>application/x-www-form-urlencoded</div></td></tr><tr><td style="font-weight:bold;vertical-align:top;">HTTP_ACCEPT</td><td style="vertical-align:top;">:</td><td><div>text/html,application/xhtml+xml,application/xml;q=0.9,image/webp,*/*;q=0.8</div></td></tr><tr><td style="font-weight:bold;vertical-align:top;">HTTP_ACCEPT_ENCODING</td><td style="vertical-align:top;">:</td><td><div>gzip, deflate</div></td></tr><tr><td style="font-weight:bold;vertical-align:top;">HTTP_ACCEPT_LANGUAGE</td><td style="vertical-align:top;">:</td><td><div>es-419,es;q=0.8</div></td></tr><tr><td style="font-weight:bold;vertical-align:top;">HTTP_CACHE_CONTROL</td><td style="vertical-align:top;">:</td><td><div>max-age=0</div></td></tr><tr><td style="font-weight:bold;vertical-align:top;">HTTP_CONNECTION</td><td style="vertical-align:top;">:</td><td><div>keep-alive</div></td></tr><tr><td style="font-weight:bold;vertical-align:top;">HTTP_CONTENT_LENGTH</td><td style="vertical-align:top;">:</td><td><div>10</div></td></tr><tr><td style="font-weight:bold;vertical-align:top;">HTTP_CONTENT_TYPE</td><td style="vertical-align:top;">:</td><td><div>application/x-www-form-urlencoded</div></td></tr><tr><td style="font-weight:bold;vertical-align:top;">HTTP_COOKIE</td><td style="vertical-align:top;">:</td><td><div>session_id_welcome=192.168.0.12-711da602-6a33-452b-8761-29584c33dcd1; session_id_admin=192.168.0.12-64d296ff-704d-485d-a18b-da48da203b63; session_id_brainchaco=192.168.0.12-1b849ca3-fb86-4923-b17d-f926a70fe7fa; session_id_sistema=192.168.0.12-3579a231-a416-44c5-8c08-5f668132fef9</div></td></tr><tr><td style="font-weight:bold;vertical-align:top;">HTTP_HOST</td><td style="vertical-align:top;">:</td><td><div>192.168.0.12:8000</div></td></tr><tr><td style="font-weight:bold;vertical-align:top;">HTTP_ORIGIN</td><td style="vertical-align:top;">:</td><td><div>http://192.168.0.12:8000</div></td></tr><tr><td style="font-weight:bold;vertical-align:top;">HTTP_REFERER</td><td style="vertical-align:top;">:</td><td><div>http://192.168.0.12:8000/Sistema/comercio/filtrado</div></td></tr><tr><td style="font-weight:bold;vertical-align:top;">HTTP_UPGRADE_INSECURE_REQUESTS</td><td style="vertical-align:top;">:</td><td><div>1</div></td></tr><tr><td style="font-weight:bold;vertical-align:top;">HTTP_USER_AGENT</td><td style="vertical-align:top;">:</td><td><div>Mozilla/5.0 (Windows NT 6.1; WOW64) AppleWebKit/537.36 (KHTML, like Gecko) Chrome/51.0.2704.103 Safari/537.36</div></td></tr><tr><td style="font-weight:bold;vertical-align:top;">PATH_INFO</td><td style="vertical-align:top;">:</td><td><div>/Sistema/comercio/filtrado</div></td></tr><tr><td style="font-weight:bold;vertical-align:top;">QUERY_STRING</td><td style="vertical-align:top;">:</td><td><div></div></td></tr><tr><td style="font-weight:bold;vertical-align:top;">REMOTE_ADDR</td><td style="vertical-align:top;">:</td><td><div>192.168.0.12</div></td></tr><tr><td style="font-weight:bold;vertical-align:top;">REMOTE_PORT</td><td style="vertical-align:top;">:</td><td><div>29898</div></td></tr><tr><td style="font-weight:bold;vertical-align:top;">REQUEST_METHOD</td><td style="vertical-align:top;">:</td><td><div>POST</div></td></tr><tr><td style="font-weight:bold;vertical-align:top;">SCRIPT_NAME</td><td style="vertical-align:top;">:</td><td><div></div></td></tr><tr><td style="font-weight:bold;vertical-align:top;">SERVER_NAME</td><td style="vertical-align:top;">:</td><td><div>Ferchu-PC</div></td></tr><tr><td style="font-weight:bold;vertical-align:top;">SERVER_PORT</td><td style="vertical-align:top;">:</td><td><div>8000</div></td></tr><tr><td style="font-weight:bold;vertical-align:top;">SERVER_PROTOCOL</td><td style="vertical-align:top;">:</td><td><div>HTTP/1.1</div></td></tr><tr><td style="font-weight:bold;vertical-align:top;">SERVER_SOFTWARE</td><td style="vertical-align:top;">:</td><td><div>Rocket 1.2.6</div></td></tr><tr><td style="font-weight:bold;vertical-align:top;">app_folders</td><td style="vertical-align:top;">:</td><td><div>set([&#x27;C:\\\\Users\\\\Ferchu\\\\Desktop\\\\web2py\\\\applications\\\\Sistema\\\\&#x27;, &#x27;C:\\\\Users\\\\Ferchu\\\\Desktop\\\\web2py\\\\applications\\\\admin\\\\&#x27;, &#x27;C:\\\\Users\\\\Ferchu\\\\Desktop\\\\web2py\\\\applications\\\\sistema\\\\&#x27;, &#x27;C:\\\\Users\\\\Ferchu\\\\Desktop\\\\web2py\\\\applications\\\\welcome\\\\&#x27;, &#x27;C:\\\\Users\\\\Ferchu\\\\Desktop\\\\web2py\\\\applications\\\\BrainChaco\\\\&#x27;])</div></td></tr><tr><td style="font-weight:bold;vertical-align:top;">applications_parent</td><td style="vertical-align:top;">:</td><td><div>C:\\Users\\Ferchu\\Desktop\\web2py</div></td></tr><tr><td style="font-weight:bold;vertical-align:top;">cmd_args</td><td style="vertical-align:top;">:</td><td><div><table></table></div></td></tr><tr><td style="font-weight:bold;vertical-align:top;">cmd_options</td><td style="vertical-align:top;">:</td><td><div>&lt;Values at 0x3196058: {&#x27;verbose&#x27;: False, &#x27;ip&#x27;: &#x27;127.0.0.1&#x27;, &#x27;debuglevel&#x27;: 30, &#x27;with_scheduler&#x27;: False, &#x27;shutdown_timeout&#x27;: 5, &#x27;taskbar&#x27;: False, &#x27;with_coverage&#x27;: False, &#x27;pid_filename&#x27;: &#x27;httpserver.pid&#x27;, &#x27;maxthreads&#x27;: None, &#x27;softcron&#x27;: False, &#x27;server_name&#x27;: &#x27;Ferchu-PC&#x27;, &#x27;bpython&#x27;: False, &#x27;nogui&#x27;: False, &#x27;port&#x27;: 8000, &#x27;print_errors&#x27;: False, &#x27;extcron&#x27;: False, &#x27;runcron&#x27;: False, &#x27;run_system_tests&#x27;: False, &#x27;test&#x27;: None, &#x27;folder&#x27;: &#x27;C:\\\\Users\\\\Ferchu\\\\Desktop\\\\web2py&#x27;, &#x27;config&#x27;: &#x27;&#x27;, &#x27;minthreads&#x27;: None, &#x27;shell&#x27;: None, &#x27;run&#x27;: &#x27;&#x27;, &#x27;log_filename&#x27;: &#x27;httpserver.log&#x27;, &#x27;profiler_dir&#x27;: None, &#x27;args&#x27;: [&#x27;&#x27;], &#x27;socket_timeout&#x27;: 5, &#x27;ssl_ca_certificate&#x27;: None, &#x27;scheduler&#x27;: None, &#x27;interfaces&#x27;: None, &#x27;ssl_private_key&#x27;: &#x27;&#x27;, &#x27;gae&#x27;: None, &#x27;password&#x27;: &#x27;******&#x27;, &#x27;request_queue_size&#x27;: 5, &#x27;ssl_certificate&#x27;: &#x27;&#x27;, &#x27;cronjob&#x27;: False, &#x27;numthreads&#x27;: None, &#x27;quiet&#x27;: False, &#x27;import_models&#x27;: False, &#x27;timeout&#x27;: 10, &#x27;plain&#x27;: False, &#x27;nobanner&#x27;: False}&gt;</div></td></tr><tr><td style="font-weight:bold;vertical-align:top;">content_length</td><td style="vertical-align:top;">:</td><td><div>10</div></td></tr><tr><td style="font-weight:bold;vertical-align:top;">content_type</td><td style="vertical-align:top;">:</td><td><div>application/x-www-form-urlencoded</div></td></tr><tr><td style="font-weight:bold;vertical-align:top;">db_sessions</td><td style="vertical-align:top;">:</td><td><div>set([])</div></td></tr><tr><td style="font-weight:bold;vertical-align:top;">debugging</td><td style="vertical-align:top;">:</td><td><div>False</div></td></tr><tr><td style="font-weight:bold;vertical-align:top;">gluon_parent</td><td style="vertical-align:top;">:</td><td><div>C:\\Users\\Ferchu\\Desktop\\web2py</div></td></tr><tr><td style="font-weight:bold;vertical-align:top;">http_accept</td><td style="vertical-align:top;">:</td><td><div>text/html,application/xhtml+xml,application/xml;q=0.9,image/webp,*/*;q=0.8</div></td></tr><tr><td style="font-weight:bold;vertical-align:top;">http_accept_encoding</td><td style="vertical-align:top;">:</td><td><div>gzip, deflate</div></td></tr><tr><td style="font-weight:bold;vertical-align:top;">http_accept_language</td><td style="vertical-align:top;">:</td><td><div>es-419,es;q=0.8</div></td></tr><tr><td style="font-weight:bold;vertical-align:top;">http_cache_control</td><td style="vertical-align:top;">:</td><td><div>max-age=0</div></td></tr><tr><td style="font-weight:bold;vertical-align:top;">http_connection</td><td style="vertical-align:top;">:</td><td><div>keep-alive</div></td></tr><tr><td style="font-weight:bold;vertical-align:top;">http_content_length</td><td style="vertical-align:top;">:</td><td><div>10</div></td></tr><tr><td style="font-weight:bold;vertical-align:top;">http_content_type</td><td style="vertical-align:top;">:</td><td><div>application/x-www-form-urlencoded</div></td></tr><tr><td style="font-weight:bold;vertical-align:top;">http_cookie</td><td style="vertical-align:top;">:</td><td><div>session_id_welcome=192.168.0.12-711da602-6a33-452b-8761-29584c33dcd1; session_id_admin=192.168.0.12-64d296ff-704d-485d-a18b-da48da203b63; session_id_brainchaco=192.168.0.12-1b849ca3-fb86-4923-b17d-f926a70fe7fa; session_id_sistema=192.168.0.12-3579a231-a416-44c5-8c08-5f668132fef9</div></td></tr><tr><td style="font-weight:bold;vertical-align:top;">http_host</td><td style="vertical-align:top;">:</td><td><div>192.168.0.12:8000</div></td></tr><tr><td style="font-weight:bold;vertical-align:top;">http_origin</td><td style="vertical-align:top;">:</td><td><div>http://192.168.0.12:8000</div></td></tr><tr><td style="font-weight:bold;vertical-align:top;">http_referer</td><td style="vertical-align:top;">:</td><td><div>http://192.168.0.12:8000/Sistema/comercio/filtrado</div></td></tr><tr><td style="font-weight:bold;vertical-align:top;">http_upgrade_insecure_requests</td><td style="vertical-align:top;">:</td><td><div>1</div></td></tr><tr><td style="font-weight:bold;vertical-align:top;">http_user_agent</td><td style="vertical-align:top;">:</td><td><div>Mozilla/5.0 (Windows NT 6.1; WOW64) AppleWebKit/537.36 (KHTML, like Gecko) Chrome/51.0.2704.103 Safari/537.36</div></td></tr><tr><td style="font-weight:bold;vertical-align:top;">is_jython</td><td style="vertical-align:top;">:</td><td><div>False</div></td></tr><tr><td style="font-weight:bold;vertical-align:top;">is_pypy</td><td style="vertical-align:top;">:</td><td><div>False</div></td></tr><tr><td style="font-weight:bold;vertical-align:top;">is_source</td><td style="vertical-align:top;">:</td><td><div>False</div></td></tr><tr><td style="font-weight:bold;vertical-align:top;">local_hosts</td><td style="vertical-align:top;">:</td><td><div><table><tr><td><div>Ferchu-PC</div></td></tr><tr><td><div>Ferchu-PC.lan</div></td></tr><tr><td><div>::ffff:127.0.0.1</div></td></tr><tr><td><div>::1</div></td></tr><tr><td><div>fe80::35e9:9bf9:7bc2:2e27%18</div></td></tr><tr><td><div>192.168.0.12</div></td></tr><tr><td><div>127.0.0.1</div></td></tr></table></div></td></tr><tr><td style="font-weight:bold;vertical-align:top;">path_info</td><td style="vertical-align:top;">:</td><td><div>/Sistema/comercio/filtrado</div></td></tr><tr><td style="font-weight:bold;vertical-align:top;">query_string</td><td style="vertical-align:top;">:</td><td><div></div></td></tr><tr><td style="font-weight:bold;vertical-align:top;">remote_addr</td><td style="vertical-align:top;">:</td><td><div>192.168.0.12</div></td></tr><tr><td style="font-weight:bold;vertical-align:top;">remote_port</td><td style="vertical-align:top;">:</td><td><div>29898</div></td></tr><tr><td style="font-weight:bold;vertical-align:top;">request_method</td><td style="vertical-align:top;">:</td><td><div>POST</div></td></tr><tr><td style="font-weight:bold;vertical-align:top;">request_uri</td><td style="vertical-align:top;">:</td><td><div>/Sistema/comercio/filtrado</div></td></tr><tr><td style="font-weight:bold;vertical-align:top;">script_name</td><td style="vertical-align:top;">:</td><td><div></div></td></tr><tr><td style="font-weight:bold;vertical-align:top;">server_name</td><td style="vertical-align:top;">:</td><td><div>Ferchu-PC</div></td></tr><tr><td style="font-weight:bold;vertical-align:top;">server_port</td><td style="vertical-align:top;">:</td><td><div>8000</div></td></tr><tr><td style="font-weight:bold;vertical-align:top;">server_protocol</td><td style="vertical-align:top;">:</td><td><div>HTTP/1.1</div></td></tr><tr><td style="font-weight:bold;vertical-align:top;">server_software</td><td style="vertical-align:top;">:</td><td><div>Rocket 1.2.6</div></td></tr><tr><td style="font-weight:bold;vertical-align:top;">web2py_path</td><td style="vertical-align:top;">:</td><td><div>C:\\Users\\Ferchu\\Desktop\\web2py</div></td></tr><tr><td style="font-weight:bold;vertical-align:top;">web2py_version</td><td style="vertical-align:top;">:</td><td><div>2.14.6-stable+timestamp.2016.05.10.00.21.47</div></td></tr><tr><td style="font-weight:bold;vertical-align:top;">wsgi.errors</td><td style="vertical-align:top;">:</td><td><div>&lt;open file &#x27;&lt;stderr&gt;&#x27;, mode &#x27;w&#x27; at 0x01D2D0D0&gt;</div></td></tr><tr><td style="font-weight:bold;vertical-align:top;">wsgi.file_wrapper</td><td style="vertical-align:top;">:</td><td><div>&lt;class wsgiref.util.FileWrapper at 0x0320E2D0&gt;</div></td></tr><tr><td style="font-weight:bold;vertical-align:top;">wsgi.input</td><td style="vertical-align:top;">:</td><td><div>&lt;socket._fileobject object at 0x04A21930&gt;</div></td></tr><tr><td style="font-weight:bold;vertical-align:top;">wsgi.multiprocess</td><td style="vertical-align:top;">:</td><td><div>False</div></td></tr><tr><td style="font-weight:bold;vertical-align:top;">wsgi.multithread</td><td style="vertical-align:top;">:</td><td><div>True</div></td></tr><tr><td style="font-weight:bold;vertical-align:top;">wsgi.run_once</td><td style="vertical-align:top;">:</td><td><div>False</div></td></tr><tr><td style="font-weight:bold;vertical-align:top;">wsgi.url_scheme</td><td style="vertical-align:top;">:</td><td><div>http</div></td></tr><tr><td style="font-weight:bold;vertical-align:top;">wsgi.version</td><td style="vertical-align:top;">:</td><td><div><table><tr><td><div>1</div></td></tr><tr><td><div>0</div></td></tr></table></div></td></tr><tr><td style="font-weight:bold;vertical-align:top;">wsgi_errors</td><td style="vertical-align:top;">:</td><td><div>&lt;open file &#x27;&lt;stderr&gt;&#x27;, mode &#x27;w&#x27; at 0x01D2D0D0&gt;</div></td></tr><tr><td style="font-weight:bold;vertical-align:top;">wsgi_file_wrapper</td><td style="vertical-align:top;">:</td><td><div>&lt;class wsgiref.util.FileWrapper at 0x0320E2D0&gt;</div></td></tr><tr><td style="font-weight:bold;vertical-align:top;">wsgi_input</td><td style="vertical-align:top;">:</td><td><div>&lt;socket._fileobject object at 0x04A21930&gt;</div></td></tr><tr><td style="font-weight:bold;vertical-align:top;">wsgi_multiprocess</td><td style="vertical-align:top;">:</td><td><div>False</div></td></tr><tr><td style="font-weight:bold;vertical-align:top;">wsgi_multithread</td><td style="vertical-align:top;">:</td><td><div>True</div></td></tr><tr><td style="font-weight:bold;vertical-align:top;">wsgi_run_once</td><td style="vertical-align:top;">:</td><td><div>False</div></td></tr><tr><td style="font-weight:bold;vertical-align:top;">wsgi_url_scheme</td><td style="vertical-align:top;">:</td><td><div>http</div></td></tr><tr><td style="font-weight:bold;vertical-align:top;">wsgi_version</td><td style="vertical-align:top;">:</td><td><div><table><tr><td><div>1</div></td></tr><tr><td><div>0</div></td></tr></table></div></td></tr></table></div></td></tr><tr><td style="font-weight:bold;vertical-align:top;">extension</td><td style="vertical-align:top;">:</td><td><div>html</div></td></tr><tr><td style="font-weight:bold;vertical-align:top;">folder</td><td style="vertical-align:top;">:</td><td><div>C:\\Users\\Ferchu\\Desktop\\web2py\\applications\\Sistema\\</div></td></tr><tr><td style="font-weight:bold;vertical-align:top;">function</td><td style="vertical-align:top;">:</td><td><div>filtrado</div></td></tr><tr><td style="font-weight:bold;vertical-align:top;">global_settings</td><td style="vertical-align:top;">:</td><td><div><table><tr><td style="font-weight:bold;vertical-align:top;">app_folders</td><td style="vertical-align:top;">:</td><td><div>set([&#x27;C:\\\\Users\\\\Ferchu\\\\Desktop\\\\web2py\\\\applications\\\\Sistema\\\\&#x27;, &#x27;C:\\\\Users\\\\Ferchu\\\\Desktop\\\\web2py\\\\applications\\\\admin\\\\&#x27;, &#x27;C:\\\\Users\\\\Ferchu\\\\Desktop\\\\web2py\\\\applications\\\\sistema\\\\&#x27;, &#x27;C:\\\\Users\\\\Ferchu\\\\Desktop\\\\web2py\\\\applications\\\\welcome\\\\&#x27;, &#x27;C:\\\\Users\\\\Ferchu\\\\Desktop\\\\web2py\\\\applications\\\\BrainChaco\\\\&#x27;])</div></td></tr><tr><td style="font-weight:bold;vertical-align:top;">applications_parent</td><td style="vertical-align:top;">:</td><td><div>C:\\Users\\Ferchu\\Desktop\\web2py</div></td></tr><tr><td style="font-weight:bold;vertical-align:top;">cmd_args</td><td style="vertical-align:top;">:</td><td><div><table></table></div></td></tr><tr><td style="font-weight:bold;vertical-align:top;">cmd_options</td><td style="vertical-align:top;">:</td><td><div>&lt;Values at 0x3196058: {&#x27;verbose&#x27;: False, &#x27;ip&#x27;: &#x27;127.0.0.1&#x27;, &#x27;debuglevel&#x27;: 30, &#x27;with_scheduler&#x27;: False, &#x27;shutdown_timeout&#x27;: 5, &#x27;taskbar&#x27;: False, &#x27;with_coverage&#x27;: False, &#x27;pid_filename&#x27;: &#x27;httpserver.pid&#x27;, &#x27;maxthreads&#x27;: None, &#x27;softcron&#x27;: False, &#x27;server_name&#x27;: &#x27;Ferchu-PC&#x27;, &#x27;bpython&#x27;: False, &#x27;nogui&#x27;: False, &#x27;port&#x27;: 8000, &#x27;print_errors&#x27;: False, &#x27;extcron&#x27;: False, &#x27;runcron&#x27;: False, &#x27;run_system_tests&#x27;: False, &#x27;test&#x27;: None, &#x27;folder&#x27;: &#x27;C:\\\\Users\\\\Ferchu\\\\Desktop\\\\web2py&#x27;, &#x27;config&#x27;: &#x27;&#x27;, &#x27;minthreads&#x27;: None, &#x27;shell&#x27;: None, &#x27;run&#x27;: &#x27;&#x27;, &#x27;log_filename&#x27;: &#x27;httpserver.log&#x27;, &#x27;profiler_dir&#x27;: None, &#x27;args&#x27;: [&#x27;&#x27;], &#x27;socket_timeout&#x27;: 5, &#x27;ssl_ca_certificate&#x27;: None, &#x27;scheduler&#x27;: None, &#x27;interfaces&#x27;: None, &#x27;ssl_private_key&#x27;: &#x27;&#x27;, &#x27;gae&#x27;: None, &#x27;password&#x27;: &#x27;******&#x27;, &#x27;request_queue_size&#x27;: 5, &#x27;ssl_certificate&#x27;: &#x27;&#x27;, &#x27;cronjob&#x27;: False, &#x27;numthreads&#x27;: None, &#x27;quiet&#x27;: False, &#x27;import_models&#x27;: False, &#x27;timeout&#x27;: 10, &#x27;plain&#x27;: False, &#x27;nobanner&#x27;: False}&gt;</div></td></tr><tr><td style="font-weight:bold;vertical-align:top;">db_sessions</td><td style="vertical-align:top;">:</td><td><div>set([])</div></td></tr><tr><td style="font-weight:bold;vertical-align:top;">debugging</td><td style="vertical-align:top;">:</td><td><div>False</div></td></tr><tr><td style="font-weight:bold;vertical-align:top;">gluon_parent</td><td style="vertical-align:top;">:</td><td><div>C:\\Users\\Ferchu\\Desktop\\web2py</div></td></tr><tr><td style="font-weight:bold;vertical-align:top;">is_jython</td><td style="vertical-align:top;">:</td><td><div>False</div></td></tr><tr><td style="font-weight:bold;vertical-align:top;">is_pypy</td><td style="vertical-align:top;">:</td><td><div>False</div></td></tr><tr><td style="font-weight:bold;vertical-align:top;">is_source</td><td style="vertical-align:top;">:</td><td><div>False</div></td></tr><tr><td style="font-weight:bold;vertical-align:top;">local_hosts</td><td style="vertical-align:top;">:</td><td><div><table><tr><td><div>Ferchu-PC</div></td></tr><tr><td><div>Ferchu-PC.lan</div></td></tr><tr><td><div>::ffff:127.0.0.1</div></td></tr><tr><td><div>::1</div></td></tr><tr><td><div>fe80::35e9:9bf9:7bc2:2e27%18</div></td></tr><tr><td><div>192.168.0.12</div></td></tr><tr><td><div>127.0.0.1</div></td></tr></table></div></td></tr><tr><td style="font-weight:bold;vertical-align:top;">web2py_version</td><td style="vertical-align:top;">:</td><td><div>2.14.6-stable+timestamp.2016.05.10.00.21.47</div></td></tr></table></div></td></tr><tr><td style="font-weight:bold;vertical-align:top;">is_https</td><td style="vertical-align:top;">:</td><td><div>False</div></td></tr><tr><td style="font-weight:bold;vertical-align:top;">is_local</td><td style="vertical-align:top;">:</td><td><div>True</div></td></tr><tr><td style="font-weight:bold;vertical-align:top;">is_restful</td><td style="vertical-align:top;">:</td><td><div>False</div></td></tr><tr><td style="font-weight:bold;vertical-align:top;">is_scheduler</td><td style="vertical-align:top;">:</td><td><div>False</div></td></tr><tr><td style="font-weight:bold;vertical-align:top;">is_shell</td><td style="vertical-align:top;">:</td><td><div>False</div></td></tr><tr><td style="font-weight:bold;vertical-align:top;">now</td><td style="vertical-align:top;">:</td><td><div>datetime.datetime(2016, 8, 3, 22, 37, 29, 836000)</div></td></tr><tr><td style="font-weight:bold;vertical-align:top;">raw_args</td><td style="vertical-align:top;">:</td><td><div></div></td></tr><tr><td style="font-weight:bold;vertical-align:top;">raw_extension</td><td style="vertical-align:top;">:</td><td><div>None</div></td></tr><tr><td style="font-weight:bold;vertical-align:top;">url</td><td style="vertical-align:top;">:</td><td><div>/Sistema/comercio/filtrado</div></td></tr><tr><td style="font-weight:bold;vertical-align:top;">utcnow</td><td style="vertical-align:top;">:</td><td><div>datetime.datetime(2016, 8, 4, 1, 37, 29, 836000)</div></td></tr><tr><td style="font-weight:bold;vertical-align:top;">wsgi</td><td style="vertical-align:top;">:</td><td><div>&lt;gluon.main.LazyWSGI object at 0x04A378F0&gt;</div></td></tr></table></div>'
tRp58
sS'frames'
p59
(lp60
(dp61
S'file'
p62
S'C:\\Users\\Ferchu\\Desktop\\web2py\\gluon\\restricted.py'
p63
sS'dump'
p64
(dp65
S'environment'
p66
S"{'A': <class 'gluon.html.A'>, 'ANY_OF': <class 'gluon.validators.ANY_OF'>, 'ASSIGNJS': <function ASSIGNJS>, 'AppConfig': <function AppConfig>, 'Auth': <class 'gluon.tools.Auth'>, 'B': <class 'gluon.html.B'>, 'BEAUTIFY': <class 'gluon.html.BEAUTIFY'>, 'BODY': <class 'gluon.html.BODY'>, 'BR': <class 'gluon.html.BR'>, 'BUTTON': <class 'gluon.html.BUTTON'>, ...}"
p67
sS'ccode'
p68
S'<code object <module> at 04298A40, file "C:\\User...s\\Sistema\\views\\comercio/Comercios.html", line 1>'
p69
ssS'lnum'
p70
I227
sS'lines'
p71
(dp72
I224
S'            ccode = code'
p73
sI225
S'        else:'
p74
sI226
S'            ccode = compile2(code, layer)'
p75
sI227
S'        exec ccode in environment'
p76
sI228
S'    except HTTP:'
p77
sI229
S'        raise'
p78
sI230
S'    except RestrictedError:'
p79
sI231
S'        # do not encapsulate (obfuscate) the original RestrictedError'
p80
sI222
S'    try:'
p81
sI223
S'        if isinstance(code, types.CodeType):'
p82
ssS'call'
p83
S'(code=\'response.write(\\\'<!DOCTYPE html>\\\\n<!--[if (gt IE ..."></script>\\\\n  </body>\\\\n</html>\\\\n\\\', escape=False)\', environment={\'A\': <class \'gluon.html.A\'>, \'ANY_OF\': <class \'gluon.validators.ANY_OF\'>, \'ASSIGNJS\': <function ASSIGNJS>, \'AppConfig\': <function AppConfig>, \'Auth\': <class \'gluon.tools.Auth\'>, \'B\': <class \'gluon.html.B\'>, \'BEAUTIFY\': <class \'gluon.html.BEAUTIFY\'>, \'BODY\': <class \'gluon.html.BODY\'>, \'BR\': <class \'gluon.html.BR\'>, \'BUTTON\': <class \'gluon.html.BUTTON\'>, ...}, layer=r\'C:\\Users\\Ferchu\\Desktop\\web2py\\applications\\Sistema\\views\\comercio/Comercios.html\')'
p84
sS'func'
p85
S'restricted'
p86
sa(dp87
g62
S'C:\\Users\\Ferchu\\Desktop\\web2py\\applications\\Sistema\\views\\comercio\\Comercios.html'
p88
sg64
(dp89
S'label'
p90
S'undefined'
p91
ssg70
I75
sg71
(dp92
I66
S"    response.write('\\n        </div>\\n      ', escape=False)"
p93
sI67
S'    pass'
p94
sI68
S'response.write(\'\\n\\n      <div class="\', escape=False)'
p95
sI69
S'response.write(middle_column)'
p96
sI70
S'response.write(\'">\\n        \', escape=False)'
p97
sI71
S"response.write('\\n        ', escape=False)"
p98
sI72
S'response.write(\'\\r\\n\\r\\n<head>\\r\\n\\t<link rel="stylesheet" href="../static/css/comercio-carga.css">\\r\\n</head>\\r\\n<body>\\r\\n<div class="container">\\r\\n\\t<div class="row">\\r\\n\\t\\t<div class="col-md-12">\\r\\n\\t\\t\\t<form action="\', escape=False)'
p99
sI73
S"response.write(URL('comercio','adherir'))"
p100
sI74
S'response.write(\'" method="post">\\r\\n\\t\\t\\t\\t<div class="row">\\r\\n\\t\\t\\t\\t\\t<div class="col-md-4">\\r\\n\\t\\t\\t\\t\\t\\t<div style="background-color: rgba(200, 0, 0, .5); min-height:450px;" class="panel panel-default">\\r\\n\\t\\t\\t\\t\\t\\t\\r\\n\\t\\t\\t\\t        \\t<center>\\r\\n\\t\\t\\t\\t        \\t\\t<span><font class="Titulos" color="yellow" size="5px">COMERCIO</font></span>\\r\\n\\t\\t\\t\\t        \\t</center>\\r\\n\\r\\n\\t\\t\\t\\t          \\t<hr>\\r\\n\\t\\t\\t\\t          \\t<div class="row">\\r\\n\\t\\t\\t\\t          \\t\\t<div class="col-md-4">\\r\\n\\t\\t\\t\\t          \\t\\t\\t <div style="margin-left:6%">\\r\\n\\t\\t\\t\\t\\t\\t\\t\\t            <label>\\r\\n\\t\\t\\t\\t\\t\\t\\t\\t              Nro Sucursal \\r\\n\\t\\t\\t\\t\\t\\t\\t\\t            </label>\\r\\n\\t\\t\\t\\t\\t\\t\\t\\t        <input list="Sucursales" name="Codigo" value="\', escape=False)'
p101
sI75
S'response.write(comercios.Codigo)'
p102
sI76
S'response.write(\'" id="CodSuc">\\r\\n\\t\\t\\t\\t\\t\\t\\t\\t\\t\\t  <datalist id="Sucursales">\\r\\n\\t\\t\\t\\t\\t\\t\\t\\t\\t\\t    <option value="100">\\r\\n\\t\\t\\t\\t\\t\\t\\t\\t\\t\\t    <option value="101">\\r\\n\\t\\t\\t\\t\\t\\t\\t\\t\\t\\t    <option value="102">\\r\\n\\t\\t\\t\\t\\t\\t\\t\\t\\t\\t  </datalist> \\r\\n\\t\\t\\t\\t\\t\\t\\t\\t     </div>\\t\\t\\t\\t          \\t\\t\\t\\r\\n\\t\\t\\t\\t          \\t\\t</div>\\r\\n\\t\\t\\t\\t          \\t\\t<div class="col-md-8">\\r\\n\\t\\t\\t\\t          \\t\\t\\t<div style="margin-left:2%">\\r\\n\\t\\t\\t\\t\\t\\t\\t            <label>\\r\\n\\t\\t\\t\\t\\t\\t\\t              Nombre\\r\\n\\t\\t\\t\\t\\t\\t\\t            </label>\\r\\n\\t\\t\\t\\t\\t\\t\\t            <input type="text" name="Nombre"/>\\r\\n\\t\\t\\t\\t\\t\\t\\t        </div>\\r\\n\\t\\t\\t\\t          \\t\\t</div>\\r\\n\\t\\t\\t\\t          \\t</div>\\r\\n\\t\\t\\t\\t\\t       \\r\\n\\r\\n\\t\\t\\t        \\t\\t\\r\\n\\r\\n\\t\\t\\t\\t\\t        \\r\\n\\r\\n\\t\\t\\t\\t\\t        <hr>\\r\\n\\t\\t\\t\\t\\t        <div style="margin-left:2%">\\r\\n\\t\\t\\t\\t\\t            <label>\\r\\n\\t\\t\\t\\t\\t              Rubro\\r\\n\\t\\t\\t\\t\\t            </label>\\r\\n\\t\\t\\t\\t\\t            <input type="text" name="Rubro"/>\\r\\n\\t\\t\\t\\t\\t        </div>\\r\\n\\t\\t\\t\\t\\t        <hr>\\r\\n\\t\\t\\t\\t\\t        <div class="row">\\r\\n\\t\\t\\t\\t\\t        \\t<div class="col-md-6">\\r\\n\\t\\t\\t\\t\\t\\t\\t        \\t<div style="margin-left:4%">\\r\\n\\t\\t\\t\\t\\t\\t\\t            <label>\\r\\n\\t\\t\\t\\t\\t\\t\\t              Provincia\\r\\n\\t\\t\\t\\t\\t\\t\\t            </label>\\r\\n\\t\\t\\t\\t\\t\\t\\t            <input list="Provincias" name="Provincia">\\r\\n\\t\\t\\t\\t\\t\\t\\t\\t\\t\\t  <datalist id="Provincias">\\r\\n\\t\\t\\t\\t\\t\\t\\t\\t\\t\\t    <option value="Chaco">\\r\\n\\t\\t\\t\\t\\t\\t\\t\\t\\t\\t    <option value="Corrientes">\\r\\n\\t\\t\\t\\t\\t\\t\\t\\t\\t\\t    <option value="Formosa">\\r\\n\\t\\t\\t\\t\\t\\t\\t\\t\\t\\t  </datalist> \\r\\n\\t\\t\\t\\t\\t\\t\\t        </div>\\r\\n\\t\\t\\t\\t\\t\\t\\t    </div>\\r\\n\\t\\t\\t\\t\\t        \\t<div class="col-md-6">\\r\\n\\t\\t\\t\\t\\t        \\t\\t <div style="margin-left:2%">\\r\\n\\t\\t\\t\\t\\t\\t\\t            <label>\\r\\n\\t\\t\\t\\t\\t\\t\\t              Localidad\\r\\n\\t\\t\\t\\t\\t\\t\\t            </label>\\r\\n\\t\\t\\t\\t\\t\\t\\t            <input list="Localidades" name="Localidad">\\r\\n\\t\\t\\t\\t\\t\\t\\t\\t\\t\\t  <datalist id="Localidades">\\r\\n\\t\\t\\t\\t\\t\\t\\t\\t\\t\\t    <option value="Resistencia">\\r\\n\\t\\t\\t\\t\\t\\t\\t\\t\\t\\t    <option value="Saens Pe\\xc3\\xb1a">\\r\\n\\t\\t\\t\\t\\t\\t\\t\\t\\t\\t    <option value="Goya">\\r\\n\\t\\t\\t\\t\\t\\t\\t\\t\\t\\t    <option value="Esquina">\\r\\n\\t\\t\\t\\t\\t\\t\\t\\t\\t\\t    <option value="Curuzu Cuatia">\\r\\n\\t\\t\\t\\t\\t\\t\\t\\t\\t\\t  </datalist> \\r\\n\\t\\t\\t\\t\\t\\t\\t        </div>\\r\\n\\r\\n\\t\\t\\t\\t\\t        \\t</div>\\r\\n\\t\\t\\t\\t\\t        </div>\\r\\n\\t\\t\\t\\t\\t        \\r\\n\\t\\t\\t\\t\\t        <hr>\\r\\n\\t\\t\\t\\t\\t       \\r\\n\\t\\t\\t\\t\\t        <div class="row">\\r\\n\\t\\t\\t\\t\\t        \\t<div class="col-md-3">\\r\\n\\t\\t\\t\\t\\t\\t        \\t<div style="margin-left:7%">\\r\\n\\t\\t\\t\\t\\t\\t\\t            <label>\\r\\n\\t\\t\\t\\t\\t\\t\\t              Cod. Postal\\r\\n\\t\\t\\t\\t\\t\\t\\t            </label>\\r\\n\\t\\t\\t\\t\\t\\t\\t            <input type="text" name="CodigoPostal"/>\\r\\n\\t\\t\\t\\t\\t\\t        \\t</div>\\r\\n\\t\\t\\t\\t\\t\\t        </div>\\r\\n\\t\\t\\t\\t\\t\\t        <div class="col-md-9">\\r\\n\\t\\t\\t\\t\\t\\t        \\t<div style="margin-left:2%">\\r\\n\\t\\t\\t\\t\\t\\t\\t            <label>\\r\\n\\t\\t\\t\\t\\t\\t\\t              Direcci\\xc3\\xb3n\\r\\n\\t\\t\\t\\t\\t\\t\\t            </label>\\r\\n\\t\\t\\t\\t\\t\\t\\t            <input type="text" name="Direccion"/>\\r\\n\\t\\t\\t\\t\\t\\t\\t        </div>\\r\\n\\t\\t\\t\\t\\t\\t        </div>\\r\\n\\t\\t\\t\\t\\t        </div>\\r\\n\\t\\t\\t\\t\\t        \\r\\n\\t\\t\\t\\t\\t        <hr>\\r\\n\\r\\n\\t\\t\\t\\t\\t        <center>\\r\\n\\t\\t\\t\\t        \\t\\t<span><font class="Titulos" color="yellow" size="4px">Cuenta en el sistema</font></span>\\r\\n\\t\\t\\t\\t        \\t</center>\\r\\n\\r\\n\\t\\t\\t\\t\\t       \\t<hr>\\r\\n\\t\\t\\t\\t\\t        <div class="row">\\r\\n\\t\\t\\t\\t\\t        \\t<div class="col-md-4">\\r\\n\\t\\t\\t\\t\\t\\t        \\t<div style="margin-left:6%">\\r\\n\\t\\t\\t\\t\\t\\t\\t            <label>\\r\\n\\t\\t\\t\\t\\t\\t\\t              Usuario\\r\\n\\t\\t\\t\\t\\t\\t\\t            </label>\\r\\n\\t\\t\\t\\t\\t\\t\\t            <input type="text" name="Usuario"/>\\r\\n\\t\\t\\t\\t\\t\\t        \\t</div>\\r\\n\\t\\t\\t\\t\\t\\t        </div>\\r\\n\\t\\t\\t\\t\\t\\t        <div class="col-md-8">\\r\\n\\t\\t\\t\\t\\t\\t        \\t<div style="margin-left:2%">\\r\\n\\t\\t\\t\\t\\t\\t\\t            <label>\\r\\n\\t\\t\\t\\t\\t\\t\\t              Contrase\\xc3\\xb1a\\r\\n\\t\\t\\t\\t\\t\\t\\t            </label>\\r\\n\\t\\t\\t\\t\\t\\t\\t            <input type="text" name="Pass"/>\\r\\n\\t\\t\\t\\t\\t\\t\\t        </div>\\r\\n\\t\\t\\t\\t\\t\\t        </div>\\r\\n\\t\\t\\t\\t\\t        </div>\\r\\n\\t\\t\\t\\t\\t        \\r\\n\\t\\t\\t\\t\\t        \\r\\n\\r\\n\\r\\n\\r\\n\\t\\t\\t          \\t\\t<br>\\r\\n\\r\\n\\t\\t\\t          \\t</div>\\r\\n\\t\\t\\t        </div>\\r\\n\\t\\t\\t          \\r\\n\\t\\t\\t          <!-- Fin columna 1 -->\\r\\n\\t\\t\\t          <div class="col-md-4">\\r\\n\\t\\t\\t\\t          <div style="background-color: rgba(200, 0, 0, .5); min-height: 450px;" class="panel panel-default">\\r\\n\\t\\t\\t\\t          \\t<center>\\r\\n\\t\\t\\t\\t        \\t\\t<span><font class="Titulos" color="yellow" size="5px">CONTACTO</font></span>\\r\\n\\t\\t\\t\\t        \\t</center>\\r\\n\\t\\t\\t\\t        \\t\\r\\n\\t\\t\\t\\t          </div>\\r\\n\\t\\t\\t          </div>\\r\\n\\t\\t\\t          <!-- Fin columna 2 -->\\r\\n\\t\\t\\t          <div class="col-md-4">\\r\\n\\t\\t\\t\\t          <div style="background-color: rgba(200, 0, 0, .5); min-height: 450px;" class="panel panel-default">\\r\\n\\t\\t\\t\\t          \\t <center>\\r\\n\\t\\t\\t\\t        \\t\\t<span><font class="Titulos" color="yellow" size="5px">PLANES</font></span>\\r\\n\\t\\t\\t\\t        \\t</center>\\r\\n\\t\\t\\t\\t          </div>\\r\\n\\t\\t\\t          </div>\\r\\n\\r\\n\\r\\n\\r\\n\\r\\n\\t\\t\\t           <!-- Button down -->\\r\\n\\t\\t\\t    </div>\\r\\n\\r\\n\\t\\t\\t    <div style="background-color: rgba(200, 0, 0, .5);" class="panel panel-default">\\r\\n\\t\\t\\t\\t    <div class="row">\\r\\n\\t\\t\\t         \\t<div class="col-md-12">\\r\\n\\t\\t\\t\\t          <div align="center">\\r\\n\\t\\t\\t\\t            <button id="boton-adherir" class="button button-block"/>Adherir Comercio</button>\\r\\n\\t\\t\\t\\t          </div>\\r\\n\\t\\t\\t\\t   \\t\\t</div>\\r\\n\\t\\t         \\t</div>\\r\\n                   <br>\\r\\n                </div>\\r\\n\\t           \\r\\n\\t\\t\\t</form>\\r\\n\\r\\n\\t\\t</div>\\r\\n\\t</div>\\r\\n</div>\\r\\n\\r\\n</body>\', escape=False)'
p103
sI77
S"response.write('\\n        ', escape=False)"
p104
sI78
S"response.write('\\n      </div>\\n\\n      ', escape=False)"
p105
sI79
S'if right_sidebar_enabled:'
p106
sI80
S'    response.write(\'\\n        <div class="col-md-3">\\n            \', escape=False)'
p107
sI81
S"    response.write('\\n            <h3>Right Sidebar</h3>\\n            <p></p>\\n            ', escape=False)"
p108
sI82
S"    response.write('\\n        </div>\\n      ', escape=False)"
p109
sI83
S'    pass'
p110
sI84
S"response.write('\\n\\n    </div>\\n\\n    ', escape=False)"
p111
sI85
S'response.write(\' <!-- this is default footer -->      \\n    <footer class="footer">\\n      <div class="container-fluid">\\n          <div id="poweredBy" class="pull-right">\\n            <a href="#" style="color:red">Servicio T\\xc3\\xa9cnico</a>\\n          </div>\\n      </div>\\n    </footer>\\n    \', escape=False)'
p112
ssg83
S'()'
p113
sg85
S'<module>'
p114
sasS'pyver'
p115
S'Python 2.7.9: C:\\Users\\Ferchu\\Desktop\\web2py\\web2py.exe (prefix: C:\\Python27)'
p116
sS'session'
p117
g57
(S's\xbb\x01\x00\x00<div><table><tr><td style="font-weight:bold;vertical-align:top;">flash</td><td style="vertical-align:top;">:</td><td><div>None</div></td></tr><tr><td style="font-weight:bold;vertical-align:top;">last_orderby</td><td style="vertical-align:top;">:</td><td><div>None</div></td></tr><tr><td style="font-weight:bold;vertical-align:top;">last_query</td><td style="vertical-align:top;">:</td><td><div>db.Comercio.id&gt;0</div></td></tr></table></div>'
tRp118
sS'etype'
p119
S"<type 'exceptions.AttributeError'>"
p120
sS'date'
p121
S'Wed Aug 03 22:37:29 2016'
p122
sS'response'
p123
g57
(S'so!\x00\x00<div><table><tr><td style="font-weight:bold;vertical-align:top;">body</td><td style="vertical-align:top;">:</td><td><div>&lt;cStringIO.StringO object at 0x08753AC0&gt;</div></td></tr><tr><td style="font-weight:bold;vertical-align:top;">cookies</td><td style="vertical-align:top;">:</td><td><div><table><tr><td style="font-weight:bold;vertical-align:top;">session_id_sistema</td><td style="vertical-align:top;">:</td><td><div>192.168.0.12-3579a231-a416-44c5-8c08-5f668132fef9<table><tr><td style="font-weight:bold;vertical-align:top;">comment</td><td style="vertical-align:top;">:</td><td><div></div></td></tr><tr><td style="font-weight:bold;vertical-align:top;">domain</td><td style="vertical-align:top;">:</td><td><div></div></td></tr><tr><td style="font-weight:bold;vertical-align:top;">expires</td><td style="vertical-align:top;">:</td><td><div></div></td></tr><tr><td style="font-weight:bold;vertical-align:top;">httponly</td><td style="vertical-align:top;">:</td><td><div></div></td></tr><tr><td style="font-weight:bold;vertical-align:top;">max-age</td><td style="vertical-align:top;">:</td><td><div></div></td></tr><tr><td style="font-weight:bold;vertical-align:top;">path</td><td style="vertical-align:top;">:</td><td><div>/</div></td></tr><tr><td style="font-weight:bold;vertical-align:top;">secure</td><td style="vertical-align:top;">:</td><td><div></div></td></tr><tr><td style="font-weight:bold;vertical-align:top;">version</td><td style="vertical-align:top;">:</td><td><div></div></td></tr></table></div></td></tr></table></div></td></tr><tr><td style="font-weight:bold;vertical-align:top;">delimiters</td><td style="vertical-align:top;">:</td><td><div><table><tr><td><div>{{</div></td></tr><tr><td><div>}}</div></td></tr></table></div></td></tr><tr><td style="font-weight:bold;vertical-align:top;">files</td><td style="vertical-align:top;">:</td><td><div><table><tr><td><div>/Sistema/static/js/jquery.js</div></td></tr><tr><td><div>/Sistema/static/css/calendar.css</div></td></tr><tr><td><div>/Sistema/static/js/calendar.js</div></td></tr><tr><td><div>/Sistema/static/js/web2py.js</div></td></tr></table></div></td></tr><tr><td style="font-weight:bold;vertical-align:top;">flash</td><td style="vertical-align:top;">:</td><td><div></div></td></tr><tr><td style="font-weight:bold;vertical-align:top;">form_label_separator</td><td style="vertical-align:top;">:</td><td><div></div></td></tr><tr><td style="font-weight:bold;vertical-align:top;">formstyle</td><td style="vertical-align:top;">:</td><td><div>bootstrap3_inline</div></td></tr><tr><td style="font-weight:bold;vertical-align:top;">generic_patterns</td><td style="vertical-align:top;">:</td><td><div><table><tr><td><div>*</div></td></tr></table></div></td></tr><tr><td style="font-weight:bold;vertical-align:top;">google_analytics_id</td><td style="vertical-align:top;">:</td><td><div>None</div></td></tr><tr><td style="font-weight:bold;vertical-align:top;">headers</td><td style="vertical-align:top;">:</td><td><div><table><tr><td style="font-weight:bold;vertical-align:top;">X-Powered-By</td><td style="vertical-align:top;">:</td><td><div>web2py</div></td></tr></table></div></td></tr><tr><td style="font-weight:bold;vertical-align:top;">logo</td><td style="vertical-align:top;">:</td><td><div><a class="navbar-brand" href="http://credivipweb.dyndns.org/" id="web2py-logo"><b>Credi<span>vip</span></b></a></div></td></tr><tr><td style="font-weight:bold;vertical-align:top;">menu</td><td style="vertical-align:top;">:</td><td><div><table><tr><td><div><table><tr><td><div>Inicio</div></td></tr><tr><td><div>False</div></td></tr><tr><td><div>/Sistema/inicio/index</div></td></tr><tr><td><div><table></table></div></td></tr></table></div></td></tr><tr><td><div><table><tr><td><div>Comercios</div></td></tr><tr><td><div>False</div></td></tr><tr><td><div>#</div></td></tr><tr><td><div><table><tr><td><div><table><tr><td><div>Ver Comercios</div></td></tr><tr><td><div>False</div></td></tr><tr><td><div>#</div></td></tr></table></div></td></tr><tr><td><div><li class="divider"></li></div></td></tr><tr><td><div><table><tr><td><div>Adherir Comercio</div></td></tr><tr><td><div>False</div></td></tr><tr><td><div>/Sistema/comercio/AdherirComercio</div></td></tr></table></div></td></tr><tr><td><div><table><tr><td><div>Editar Comercio</div></td></tr><tr><td><div>False</div></td></tr><tr><td><div>#</div></td></tr></table></div></td></tr></table></div></td></tr></table></div></td></tr></table></div></td></tr><tr><td style="font-weight:bold;vertical-align:top;">meta</td><td style="vertical-align:top;">:</td><td><div><table><tr><td style="font-weight:bold;vertical-align:top;">author</td><td style="vertical-align:top;">:</td><td><div>Your Name &lt;you@example.com&gt;</div></td></tr><tr><td style="font-weight:bold;vertical-align:top;">description</td><td style="vertical-align:top;">:</td><td><div>a cool new app</div></td></tr><tr><td style="font-weight:bold;vertical-align:top;">generator</td><td style="vertical-align:top;">:</td><td><div>Web2py Web Framework</div></td></tr><tr><td style="font-weight:bold;vertical-align:top;">keywords</td><td style="vertical-align:top;">:</td><td><div><table><tr><td><div>web2py</div></td></tr><tr><td><div>python</div></td></tr><tr><td><div>framework</div></td></tr></table></div></td></tr></table></div></td></tr><tr><td style="font-weight:bold;vertical-align:top;">models_to_run</td><td style="vertical-align:top;">:</td><td><div><table><tr><td><div>^\\w+\\.py$</div></td></tr><tr><td><div>^comercio/\\w+\\.py$</div></td></tr><tr><td><div>^comercio/filtrado/\\w+\\.py$</div></td></tr></table></div></td></tr><tr><td style="font-weight:bold;vertical-align:top;">postprocessing</td><td style="vertical-align:top;">:</td><td><div><table></table></div></td></tr><tr><td style="font-weight:bold;vertical-align:top;">session_client</td><td style="vertical-align:top;">:</td><td><div>192.168.0.12</div></td></tr><tr><td style="font-weight:bold;vertical-align:top;">session_cookie_compression_level</td><td style="vertical-align:top;">:</td><td><div>None</div></td></tr><tr><td style="font-weight:bold;vertical-align:top;">session_cookie_expires</td><td style="vertical-align:top;">:</td><td><div>None</div></td></tr><tr><td style="font-weight:bold;vertical-align:top;">session_data_name</td><td style="vertical-align:top;">:</td><td><div>session_data_sistema</div></td></tr><tr><td style="font-weight:bold;vertical-align:top;">session_file</td><td style="vertical-align:top;">:</td><td><div>&lt;open file &#x27;C:\\\\Users\\\\Ferchu\\\\Desktop\\\\web2py\\\\applications\\\\Sistema\\\\sessions\\\\017\\\\194\\\\192.168.0.12-3579a231-a416-44c5-8c08-5f668132fef9&#x27;, mode &#x27;rb+&#x27; at 0x04768A70&gt;</div></td></tr><tr><td style="font-weight:bold;vertical-align:top;">session_filename</td><td style="vertical-align:top;">:</td><td><div>C:\\Users\\Ferchu\\Desktop\\web2py\\applications\\Sistema\\sessions\\192.168.0.12-3579a231-a416-44c5-8c08-5f668132fef9</div></td></tr><tr><td style="font-weight:bold;vertical-align:top;">session_hash</td><td style="vertical-align:top;">:</td><td><div>00191e19926c2511f65dd321e5cb878d</div></td></tr><tr><td style="font-weight:bold;vertical-align:top;">session_id</td><td style="vertical-align:top;">:</td><td><div>192.168.0.12-3579a231-a416-44c5-8c08-5f668132fef9</div></td></tr><tr><td style="font-weight:bold;vertical-align:top;">session_id_name</td><td style="vertical-align:top;">:</td><td><div>session_id_sistema</div></td></tr><tr><td style="font-weight:bold;vertical-align:top;">session_locked</td><td style="vertical-align:top;">:</td><td><div>True</div></td></tr><tr><td style="font-weight:bold;vertical-align:top;">session_masterapp</td><td style="vertical-align:top;">:</td><td><div>Sistema</div></td></tr><tr><td style="font-weight:bold;vertical-align:top;">session_new</td><td style="vertical-align:top;">:</td><td><div>False</div></td></tr><tr><td style="font-weight:bold;vertical-align:top;">session_storage_type</td><td style="vertical-align:top;">:</td><td><div>file</div></td></tr><tr><td style="font-weight:bold;vertical-align:top;">status</td><td style="vertical-align:top;">:</td><td><div>200</div></td></tr><tr><td style="font-weight:bold;vertical-align:top;">subtitle</td><td style="vertical-align:top;">:</td><td><div></div></td></tr><tr><td style="font-weight:bold;vertical-align:top;">title</td><td style="vertical-align:top;">:</td><td><div>Sistema</div></td></tr><tr><td style="font-weight:bold;vertical-align:top;">view</td><td style="vertical-align:top;">:</td><td><div>comercio/Comercios.html</div></td></tr></table></div>'
tRp124
sS'locals'
p125
(dp126
S'Service'
p127
S"<class 'gluon.tools.Service'>"
p128
sS'OBJECT'
p129
S"<class 'gluon.html.OBJECT'>"
p130
sS'SQLDB'
p131
S"<class 'pydal.base.DAL'>"
p132
sg117
S"<Storage {'_formkey[Comercio/2]': ['77603bb9-1eb...66dba1804d7'], 'last_query': 'db.Comercio.id>0'}>"
p133
sS'LINK'
p134
S"<class 'gluon.html.LINK'>"
p135
sS'BR'
p136
S"<class 'gluon.html.BR'>"
p137
sS'local_import'
p138
S'<function <lambda>>'
p139
sS'OPTGROUP'
p140
S"<class 'gluon.html.OPTGROUP'>"
p141
sS'__package__'
p142
S'None'
p143
sS'PRE'
p144
S"<class 'gluon.html.PRE'>"
p145
sS'IS_INT_IN_RANGE'
p146
S"<class 'gluon.validators.IS_INT_IN_RANGE'>"
p147
sS'left_sidebar_enabled'
p148
S'False'
p149
sS'IS_LOWER'
p150
S"<class 'gluon.validators.IS_LOWER'>"
p151
sS'IS_STRONG'
p152
S"<class 'gluon.validators.IS_STRONG'>"
p153
sS'cache'
p154
S'<gluon.cache.Cache object>'
p155
sS'IS_IN_DB'
p156
S"<class 'gluon.validators.IS_IN_DB'>"
p157
sS'TAG'
p158
S'<gluon.html.__TAG__ object>'
p159
sS'SQLField'
p160
S"<class 'pydal.objects.Field'>"
p161
sS'mail'
p162
S'<gluon.tools.Mail object>'
p163
sS'BODY'
p164
S"<class 'gluon.html.BODY'>"
p165
sS'IS_DATE_IN_RANGE'
p166
S"<class 'gluon.validators.IS_DATE_IN_RANGE'>"
p167
sS'IFRAME'
p168
S"<class 'gluon.html.IFRAME'>"
p169
sS'URL'
p170
S'<function URL>'
p171
sS'__file__'
p172
S"r'C:\\Users\\Ferchu\\Desktop\\web2py\\applications\\Sistema\\views\\comercio/Comercios.html'"
p173
sS'db'
p174
S'<DAL uri="sqlite://storage.sqlite">'
p175
sS'auth'
p176
S'<gluon.tools.Auth object>'
p177
sS'P'
S"<class 'gluon.html.P'>"
p178
sS'TFOOT'
p179
S"<class 'gluon.html.TFOOT'>"
p180
sS'XHTML'
p181
S"<class 'gluon.html.XHTML'>"
p182
sS'ON'
p183
S'True'
p184
sS'OL'
p185
S"<class 'gluon.html.OL'>"
p186
sS'TEXTAREA'
p187
S"<class 'gluon.html.TEXTAREA'>"
p188
sS'MENU'
p189
S"<class 'gluon.html.MENU'>"
p190
sS'IS_IMAGE'
p191
S"<class 'gluon.validators.IS_IMAGE'>"
p192
sS'EM'
p193
S"<class 'gluon.html.EM'>"
p194
sS'CODE'
p195
S"<class 'gluon.html.CODE'>"
p196
sS'HTTP'
p197
S"<class 'gluon.http.HTTP'>"
p198
sS'HR'
p199
S"<class 'gluon.html.HR'>"
p200
sS'IS_DATETIME'
p201
S"<class 'gluon.validators.IS_DATETIME'>"
p202
sS'STYLE'
p203
S"<class 'gluon.html.STYLE'>"
p204
sS'LABEL'
p205
S"<class 'gluon.html.LABEL'>"
p206
sS'CLEANUP'
p207
S"<class 'gluon.validators.CLEANUP'>"
p208
sS'plugins'
p209
S'<gluon.tools.PluginManager object>'
p210
sS'SELECT'
p211
S"<class 'gluon.html.SELECT'>"
p212
sS'CENTER'
p213
S"<class 'gluon.html.CENTER'>"
p214
sS'Auth'
p215
S"<class 'gluon.tools.Auth'>"
p216
sS'DEVELOPMENT_MENU'
p217
g184
sS'__builtins__'
p218
S"{'ArithmeticError': <type 'exceptions.ArithmeticError'>, 'AssertionError': <type 'exceptions.AssertionError'>, 'AttributeError': <type 'exceptions.AttributeError'>, 'BaseException': <type 'exceptions.BaseException'>, 'BufferError': <type 'exceptions.BufferError'>, 'BytesWarning': <type 'exceptions.BytesWarning'>, 'DeprecationWarning': <type 'exceptions.DeprecationWarning'>, 'EOFError': <type 'exceptions.EOFError'>, 'Ellipsis': Ellipsis, 'EnvironmentError': <type 'exceptions.EnvironmentError'>, ...}"
p219
sS'HTML'
p220
S"<class 'gluon.html.HTML'>"
p221
sS'SQLFORM'
p222
S"<class 'gluon.sqlhtml.SQLFORM'>"
p223
sS'LOAD'
p224
S'<function LOAD>'
p225
sS'redirect'
p226
S'<function redirect>'
p227
sS'FIELDSET'
p228
S"<class 'gluon.html.FIELDSET'>"
p229
sS'IS_EQUAL_TO'
p230
S"<class 'gluon.validators.IS_EQUAL_TO'>"
p231
sS'embed64'
p232
S'<function embed64>'
p233
sS'IS_LIST_OF'
p234
S"<class 'gluon.validators.IS_LIST_OF'>"
p235
sS'INPUT'
p236
S"<class 'gluon.html.INPUT'>"
p237
sS'EMBED'
p238
S"<class 'gluon.html.EMBED'>"
p239
sS'_'
S'<function _>'
p240
sS'myconf'
p241
S"{'forms': {'formstyle': 'bootstrap3_inline', 'se...': {'names': 'localhost:*, 127.0.0.1:*, *:*, *'}}"
p242
sS'H2'
p243
S"<class 'gluon.html.H2'>"
p244
sS'H3'
p245
S"<class 'gluon.html.H3'>"
p246
sS'AppConfig'
p247
S'<function AppConfig>'
p248
sS'H1'
p249
S"<class 'gluon.html.H1'>"
p250
sS'H6'
p251
S"<class 'gluon.html.H6'>"
p252
sS'H4'
p253
S"<class 'gluon.html.H4'>"
p254
sS'H5'
p255
S"<class 'gluon.html.H5'>"
p256
sS'UL'
p257
S"<class 'gluon.html.UL'>"
p258
sS'IS_UPPER'
p259
S"<class 'gluon.validators.IS_UPPER'>"
p260
sS'xmlescape'
p261
S'<function xmlescape>'
p262
sS'IS_TIME'
p263
S"<class 'gluon.validators.IS_TIME'>"
p264
sS'OPTION'
p265
S"<class 'gluon.html.OPTION'>"
p266
sS'TITLE'
p267
S"<class 'gluon.html.TITLE'>"
p268
sS'CRYPT'
p269
S"<class 'gluon.validators.CRYPT'>"
p270
sS'IS_EMPTY_OR'
p271
S"<class 'gluon.validators.IS_EMPTY_OR'>"
p272
sS'MARKMIN'
p273
S"<class 'gluon.html.MARKMIN'>"
p274
sS'__name__'
p275
S"'__restricted__'"
p276
sS'STRONG'
p277
S"<class 'gluon.html.STRONG'>"
p278
sS'COL'
p279
S"<class 'gluon.html.COL'>"
p280
sS'mc1'
p281
S"'col-md-9'"
p282
sS'mc0'
p283
S"'col-md-12'"
p284
sS'service'
p285
S'<gluon.tools.Service object>'
p286
sS'SCRIPT'
p287
S"<class 'gluon.html.SCRIPT'>"
p288
sS'TABLE'
p289
S"<class 'gluon.html.TABLE'>"
p290
sS'IS_IPV4'
p291
S"<class 'gluon.validators.IS_IPV4'>"
p292
sS'IS_LENGTH'
p293
S"<class 'gluon.validators.IS_LENGTH'>"
p294
sS'IS_IPV6'
p295
S"<class 'gluon.validators.IS_IPV6'>"
p296
sS'XML'
p297
S"<class 'gluon.html.XML'>"
p298
sS'B'
S"<class 'gluon.html.B'>"
p299
sS'IMG'
p300
S"<class 'gluon.html.IMG'>"
p301
sS'SQLTABLE'
p302
S"<class 'gluon.sqlhtml.SQLTABLE'>"
p303
sS'IS_MATCH'
p304
S"<class 'gluon.validators.IS_MATCH'>"
p305
sS'IS_ALPHANUMERIC'
p306
S"<class 'gluon.validators.IS_ALPHANUMERIC'>"
p307
sS'SPAN'
p308
S"<class 'gluon.html.SPAN'>"
p309
sS'IS_JSON'
p310
S"<class 'gluon.validators.IS_JSON'>"
p311
sS'IS_IPADDRESS'
p312
S"<class 'gluon.validators.IS_IPADDRESS'>"
p313
sS'IS_SLUG'
p314
S"<class 'gluon.validators.IS_SLUG'>"
p315
sS'BEAUTIFY'
p316
S"<class 'gluon.html.BEAUTIFY'>"
p317
sS'META'
p318
S"<class 'gluon.html.META'>"
p319
sS'BUTTON'
p320
S"<class 'gluon.html.BUTTON'>"
p321
sS'IS_DATE'
p322
S"<class 'gluon.validators.IS_DATE'>"
p323
sS'IS_EMAIL'
p324
S"<class 'gluon.validators.IS_EMAIL'>"
p325
sS'middle_column'
p326
S"'col-md-12'"
p327
sS'IS_NOT_EMPTY'
p328
S"<class 'gluon.validators.IS_NOT_EMPTY'>"
p329
sS'IS_FLOAT_IN_RANGE'
p330
S"<class 'gluon.validators.IS_FLOAT_IN_RANGE'>"
p331
sS'TBODY'
p332
S"<class 'gluon.html.TBODY'>"
p333
sS'CAT'
p334
S"<class 'gluon.html.CAT'>"
p335
sS'Field'
p336
S"<class 'pydal.objects.Field'>"
p337
sS'mc2'
p338
S"'col-md-6'"
p339
sS'IS_LIST_OF_EMAILS'
p340
S"<class 'gluon.validators.IS_LIST_OF_EMAILS'>"
p341
sS'DIV'
p342
S"<class 'gluon.html.DIV'>"
p343
sS'LEGEND'
p344
S"<class 'gluon.html.LEGEND'>"
p345
sS'COLGROUP'
p346
S"<class 'gluon.html.COLGROUP'>"
p347
sS'DAL'
p348
S"<class 'pydal.base.DAL'>"
p349
sS'ASSIGNJS'
p350
S'<function ASSIGNJS>'
p351
sS'TR'
p352
S"<class 'gluon.html.TR'>"
p353
sS'LI'
p354
S"<class 'gluon.html.LI'>"
p355
sS'right_sidebar_enabled'
p356
g149
sS'TH'
p357
S"<class 'gluon.html.TH'>"
p358
sS'TD'
p359
S"<class 'gluon.html.TD'>"
p360
sS'PluginManager'
p361
S"<class 'gluon.tools.PluginManager'>"
p362
sS'IS_URL'
p363
S"<class 'gluon.validators.IS_URL'>"
p364
sS'comercios'
p365
S'<Rows (1)>'
p366
sS'A'
S"<class 'gluon.html.A'>"
p367
sS'HEAD'
p368
S"<class 'gluon.html.HEAD'>"
p369
sS'IS_DATETIME_IN_RANGE'
p370
S"<class 'gluon.validators.IS_DATETIME_IN_RANGE'>"
p371
sS'FORM'
p372
S"<class 'gluon.html.FORM'>"
p373
sS'I'
S"<class 'gluon.html.I'>"
p374
sS'IS_NOT_IN_DB'
p375
S"<class 'gluon.validators.IS_NOT_IN_DB'>"
p376
sg123
S"<Storage {'body': <cStringIO.StringO object at 0... 0x048FA230>, 'view': 'comercio/Comercios.html'}>"
p377
sS'THEAD'
p378
S"<class 'gluon.html.THEAD'>"
p379
sS'ANY_OF'
p380
S"<class 'gluon.validators.ANY_OF'>"
p381
sS'IS_NULL_OR'
p382
S"<class 'gluon.validators.IS_EMPTY_OR'>"
p383
sg56
S"<Storage {'_vars': None, 'function': 'filtrado',...rchu\\\\Desktop\\\\web2py\\\\applications\\\\Sistema\\\\'}>"
p384
sS'IS_EXPR'
p385
S"<class 'gluon.validators.IS_EXPR'>"
p386
sS'T'
S'<gluon.languages.translator object>'
p387
sS'IS_IN_SET'
p388
S"<class 'gluon.validators.IS_IN_SET'>"
p389
sS'IS_UPLOAD_FILENAME'
p390
S"<class 'gluon.validators.IS_UPLOAD_FILENAME'>"
p391
sS'TT'
p392
S"<class 'gluon.html.TT'>"
p393
sS'IS_DECIMAL_IN_RANGE'
p394
S"<class 'gluon.validators.IS_DECIMAL_IN_RANGE'>"
p395
sssS'traceback'
p396
S'Traceback (most recent call last):\n  File "C:\\Users\\Ferchu\\Desktop\\web2py\\gluon\\restricted.py", line 227, in restricted\n    exec ccode in environment\n  File "C:\\Users\\Ferchu\\Desktop\\web2py\\applications\\Sistema\\views\\comercio/Comercios.html", line 75, in <module>\n    </label>\nAttributeError: \'Rows\' object has no attribute \'Codigo\'\n'
p397
s.